
bomb:     file format elf64-x86-64

Contents of section .interp:
 0318 2f6c6962 36342f6c 642d6c69 6e75782d  /lib64/ld-linux-
 0328 7838362d 36342e73 6f2e3200           x86-64.so.2.    
Contents of section .note.gnu.property:
 0338 04000000 10000000 05000000 474e5500  ............GNU.
 0348 020000c0 04000000 03000000 00000000  ................
Contents of section .note.gnu.build-id:
 0358 04000000 14000000 03000000 474e5500  ............GNU.
 0368 d45e6fe3 778dd309 57980f73 942a4a12  .^o.w...W..s.*J.
 0378 6925e10d                             i%..            
Contents of section .note.ABI-tag:
 037c 04000000 10000000 01000000 474e5500  ............GNU.
 038c 00000000 03000000 02000000 00000000  ................
Contents of section .gnu.hash:
 03a0 03000000 22000000 01000000 06000000  ...."...........
 03b0 0001a100 80011002 22000000 24000000  ........"...$...
 03c0 00000000 281d8c1c d165ce6d 66556110  ....(....e.mfUa.
 03d0 39f28b1c                             9...            
Contents of section .dynsym:
 03d8 00000000 00000000 00000000 00000000  ................
 03e8 00000000 00000000 d9000000 12000000  ................
 03f8 00000000 00000000 00000000 00000000  ................
 0408 48010000 12000000 00000000 00000000  H...............
 0418 00000000 00000000 c0000000 12000000  ................
 0428 00000000 00000000 00000000 00000000  ................
 0438 79000000 12000000 00000000 00000000  y...............
 0448 00000000 00000000 ae010000 20000000  ............ ...
 0458 00000000 00000000 00000000 00000000  ................
 0468 19000000 12000000 00000000 00000000  ................
 0478 00000000 00000000 57000000 12000000  ........W.......
 0488 00000000 00000000 00000000 00000000  ................
 0498 42010000 12000000 00000000 00000000  B...............
 04a8 00000000 00000000 5c000000 12000000  ........\.......
 04b8 00000000 00000000 00000000 00000000  ................
 04c8 e7000000 12000000 00000000 00000000  ................
 04d8 00000000 00000000 07010000 12000000  ................
 04e8 00000000 00000000 00000000 00000000  ................
 04f8 8a000000 12000000 00000000 00000000  ................
 0508 00000000 00000000 30010000 12000000  ........0.......
 0518 00000000 00000000 00000000 00000000  ................
 0528 73000000 12000000 00000000 00000000  s...............
 0538 00000000 00000000 50000000 12000000  ........P.......
 0548 00000000 00000000 00000000 00000000  ................
 0558 ed000000 12000000 00000000 00000000  ................
 0568 00000000 00000000 ab000000 12000000  ................
 0578 00000000 00000000 00000000 00000000  ................
 0588 ca010000 20000000 00000000 00000000  .... ...........
 0598 00000000 00000000 a4000000 12000000  ................
 05a8 00000000 00000000 00000000 00000000  ................
 05b8 b9000000 12000000 00000000 00000000  ................
 05c8 00000000 00000000 12000000 12000000  ................
 05d8 00000000 00000000 00000000 00000000  ................
 05e8 38000000 12000000 00000000 00000000  8...............
 05f8 00000000 00000000 20000000 12000000  ........ .......
 0608 00000000 00000000 00000000 00000000  ................
 0618 32000000 12000000 00000000 00000000  2...............
 0628 00000000 00000000 fb000000 12000000  ................
 0638 00000000 00000000 00000000 00000000  ................
 0648 2d000000 12000000 00000000 00000000  -...............
 0658 00000000 00000000 48000000 12000000  ........H.......
 0668 00000000 00000000 00000000 00000000  ................
 0678 8f000000 12000000 00000000 00000000  ................
 0688 00000000 00000000 d9010000 20000000  ............ ...
 0698 00000000 00000000 00000000 00000000  ................
 06a8 0d010000 12000000 00000000 00000000  ................
 06b8 00000000 00000000 cb000000 12000000  ................
 06c8 00000000 00000000 00000000 00000000  ................
 06d8 22010000 12000000 00000000 00000000  "...............
 06e8 00000000 00000000 0b000000 12000000  ................
 06f8 00000000 00000000 00000000 00000000  ................
 0708 9d000000 11001a00 60840000 00000000  ........`.......
 0718 08000000 00000000 13010000 22000000  ............"...
 0728 00000000 00000000 00000000 00000000  ................
 0738 6d000000 11001a00 70840000 00000000  m.......p.......
 0748 08000000 00000000 e0000000 11001a00  ................
 0758 80840000 00000000 08000000 00000000  ................
Contents of section .dynstr:
 0768 006c6962 632e736f 2e360073 6f636b65  .libc.so.6.socke
 0778 74006666 6c757368 00737472 63707900  t.fflush.strcpy.
 0788 5f5f7072 696e7466 5f63686b 00657869  __printf_chk.exi
 0798 7400666f 70656e00 5f5f6973 6f633939  t.fopen.__isoc99
 07a8 5f737363 616e6600 636f6e6e 65637400  _sscanf.connect.
 07b8 7369676e 616c0070 75747300 5f5f7374  signal.puts.__st
 07c8 61636b5f 63686b5f 6661696c 00737464  ack_chk_fail.std
 07d8 696e0066 67657473 005f5f65 72726e6f  in.fgets.__errno
 07e8 5f6c6f63 6174696f 6e007265 6164005f  _location.read._
 07f8 5f667072 696e7466 5f63686b 00737464  _fprintf_chk.std
 0808 6f757400 6d656d63 7079005f 5f6d656d  out.memcpy.__mem
 0818 6d6f7665 5f63686b 006d616c 6c6f6300  move_chk.malloc.
 0828 73747263 61736563 6d70005f 5f637479  strcasecmp.__cty
 0838 70655f62 5f6c6f63 00676574 656e7600  pe_b_loc.getenv.
 0848 73746465 72720061 6c61726d 00676574  stderr.alarm.get
 0858 686f7374 62796e61 6d650067 6574686f  hostbyname.getho
 0868 73746e61 6d650063 6c6f7365 00736c65  stname.close.sle
 0878 6570005f 5f637861 5f66696e 616c697a  ep.__cxa_finaliz
 0888 65005f5f 73707269 6e74665f 63686b00  e.__sprintf_chk.
 0898 5f5f6c69 62635f73 74617274 5f6d6169  __libc_start_mai
 08a8 6e007772 69746500 66726565 00474c49  n.write.free.GLI
 08b8 42435f32 2e330047 4c494243 5f322e37  BC_2.3.GLIBC_2.7
 08c8 00474c49 42435f32 2e313400 474c4942  .GLIBC_2.14.GLIB
 08d8 435f322e 332e3400 474c4942 435f322e  C_2.3.4.GLIBC_2.
 08e8 3400474c 4942435f 322e322e 35002f75  4.GLIBC_2.2.5./u
 08f8 73722f6c 6f63616c 2f646570 6f742f67  sr/local/depot/g
 0908 6c696263 2d322e31 342f6c69 62005f49  libc-2.14/lib._I
 0918 544d5f64 65726567 69737465 72544d43  TM_deregisterTMC
 0928 6c6f6e65 5461626c 65005f5f 676d6f6e  loneTable.__gmon
 0938 5f737461 72745f5f 005f4954 4d5f7265  _start__._ITM_re
 0948 67697374 6572544d 436c6f6e 65546162  gisterTMCloneTab
 0958 6c6500                               le.             
Contents of section .gnu.version:
 095c 00000200 02000200 02000000 02000200  ................
 096c 02000300 02000200 02000200 02000200  ................
 097c 02000400 00000500 02000200 06000400  ................
 098c 02000200 02000200 04000000 02000700  ................
 099c 04000200 02000200 02000200           ............    
Contents of section .gnu.version_r:
 09a8 01000600 01000000 10000000 00000000  ................
 09b8 1369690d 00000700 4d010000 10000000  .ii.....M.......
 09c8 1769690d 00000600 57010000 10000000  .ii.....W.......
 09d8 94919606 00000500 61010000 10000000  ........a.......
 09e8 74196909 00000400 6c010000 10000000  t.i.....l.......
 09f8 1469690d 00000300 78010000 10000000  .ii.....x.......
 0a08 751a6909 00000200 82010000 00000000  u.i.............
Contents of section .rela.dyn:
 0a18 c86c0000 00000000 08000000 00000000  .l..............
 0a28 c0140000 00000000 d06c0000 00000000  .........l......
 0a38 08000000 00000000 80140000 00000000  ................
 0a48 08700000 00000000 08000000 00000000  .p..............
 0a58 08700000 00000000 58800000 00000000  .p......X.......
 0a68 08000000 00000000 60800000 00000000  ........`.......
 0a78 68800000 00000000 08000000 00000000  h...............
 0a88 70800000 00000000 78800000 00000000  p.......x.......
 0a98 08000000 00000000 80800000 00000000  ................
 0aa8 88800000 00000000 08000000 00000000  ................
 0ab8 90800000 00000000 98800000 00000000  ................
 0ac8 08000000 00000000 20700000 00000000  ........ p......
 0ad8 a0800000 00000000 08000000 00000000  ................
 0ae8 62470000 00000000 a8800000 00000000  bG..............
 0af8 08000000 00000000 6b470000 00000000  ........kG......
 0b08 b0800000 00000000 08000000 00000000  ................
 0b18 75470000 00000000 b8800000 00000000  uG..............
 0b28 08000000 00000000 7c470000 00000000  ........|G......
 0b38 c0800000 00000000 08000000 00000000  ................
 0b48 83470000 00000000 c8800000 00000000  .G..............
 0b58 08000000 00000000 8a470000 00000000  .........G......
 0b68 d0800000 00000000 08000000 00000000  ................
 0b78 91470000 00000000 d8800000 00000000  .G..............
 0b88 08000000 00000000 a4470000 00000000  .........G......
 0b98 e0800000 00000000 08000000 00000000  ................
 0ba8 ae470000 00000000 d86f0000 00000000  .G.......o......
 0bb8 06000000 05000000 00000000 00000000  ................
 0bc8 e06f0000 00000000 06000000 0d000000  .o..............
 0bd8 00000000 00000000 e86f0000 00000000  .........o......
 0be8 06000000 12000000 00000000 00000000  ................
 0bf8 f06f0000 00000000 06000000 1d000000  .o..............
 0c08 00000000 00000000 f86f0000 00000000  .........o......
 0c18 06000000 23000000 00000000 00000000  ....#...........
 0c28 60840000 00000000 05000000 22000000  `..........."...
 0c38 00000000 00000000 70840000 00000000  ........p.......
 0c48 05000000 24000000 00000000 00000000  ....$...........
 0c58 80840000 00000000 05000000 25000000  ............%...
 0c68 00000000 00000000                    ........        
Contents of section .rela.plt:
 0c70 f06e0000 00000000 07000000 01000000  .n..............
 0c80 00000000 00000000 f86e0000 00000000  .........n......
 0c90 07000000 02000000 00000000 00000000  ................
 0ca0 006f0000 00000000 07000000 03000000  .o..............
 0cb0 00000000 00000000 086f0000 00000000  .........o......
 0cc0 07000000 04000000 00000000 00000000  ................
 0cd0 106f0000 00000000 07000000 06000000  .o..............
 0ce0 00000000 00000000 186f0000 00000000  .........o......
 0cf0 07000000 07000000 00000000 00000000  ................
 0d00 206f0000 00000000 07000000 08000000   o..............
 0d10 00000000 00000000 286f0000 00000000  ........(o......
 0d20 07000000 09000000 00000000 00000000  ................
 0d30 306f0000 00000000 07000000 0a000000  0o..............
 0d40 00000000 00000000 386f0000 00000000  ........8o......
 0d50 07000000 0b000000 00000000 00000000  ................
 0d60 406f0000 00000000 07000000 0c000000  @o..............
 0d70 00000000 00000000 486f0000 00000000  ........Ho......
 0d80 07000000 0e000000 00000000 00000000  ................
 0d90 506f0000 00000000 07000000 0f000000  Po..............
 0da0 00000000 00000000 586f0000 00000000  ........Xo......
 0db0 07000000 10000000 00000000 00000000  ................
 0dc0 606f0000 00000000 07000000 11000000  `o..............
 0dd0 00000000 00000000 686f0000 00000000  ........ho......
 0de0 07000000 13000000 00000000 00000000  ................
 0df0 706f0000 00000000 07000000 14000000  po..............
 0e00 00000000 00000000 786f0000 00000000  ........xo......
 0e10 07000000 15000000 00000000 00000000  ................
 0e20 806f0000 00000000 07000000 16000000  .o..............
 0e30 00000000 00000000 886f0000 00000000  .........o......
 0e40 07000000 17000000 00000000 00000000  ................
 0e50 906f0000 00000000 07000000 18000000  .o..............
 0e60 00000000 00000000 986f0000 00000000  .........o......
 0e70 07000000 19000000 00000000 00000000  ................
 0e80 a06f0000 00000000 07000000 1a000000  .o..............
 0e90 00000000 00000000 a86f0000 00000000  .........o......
 0ea0 07000000 1b000000 00000000 00000000  ................
 0eb0 b06f0000 00000000 07000000 1c000000  .o..............
 0ec0 00000000 00000000 b86f0000 00000000  .........o......
 0ed0 07000000 1e000000 00000000 00000000  ................
 0ee0 c06f0000 00000000 07000000 1f000000  .o..............
 0ef0 00000000 00000000 c86f0000 00000000  .........o......
 0f00 07000000 20000000 00000000 00000000  .... ...........
 0f10 d06f0000 00000000 07000000 21000000  .o..........!...
 0f20 00000000 00000000                    ........        
Contents of section .init:
 1000 f30f1efa 4883ec08 488b05d9 5f000048  ....H...H..._..H
 1010 85c07402 ffd04883 c408c3             ..t...H....     
Contents of section .plt:
 1020 ff35ba5e 0000f2ff 25bb5e00 000f1f00  .5.^....%.^.....
 1030 f30f1efa 68000000 00f2e9e1 ffffff90  ....h...........
 1040 f30f1efa 68010000 00f2e9d1 ffffff90  ....h...........
 1050 f30f1efa 68020000 00f2e9c1 ffffff90  ....h...........
 1060 f30f1efa 68030000 00f2e9b1 ffffff90  ....h...........
 1070 f30f1efa 68040000 00f2e9a1 ffffff90  ....h...........
 1080 f30f1efa 68050000 00f2e991 ffffff90  ....h...........
 1090 f30f1efa 68060000 00f2e981 ffffff90  ....h...........
 10a0 f30f1efa 68070000 00f2e971 ffffff90  ....h......q....
 10b0 f30f1efa 68080000 00f2e961 ffffff90  ....h......a....
 10c0 f30f1efa 68090000 00f2e951 ffffff90  ....h......Q....
 10d0 f30f1efa 680a0000 00f2e941 ffffff90  ....h......A....
 10e0 f30f1efa 680b0000 00f2e931 ffffff90  ....h......1....
 10f0 f30f1efa 680c0000 00f2e921 ffffff90  ....h......!....
 1100 f30f1efa 680d0000 00f2e911 ffffff90  ....h...........
 1110 f30f1efa 680e0000 00f2e901 ffffff90  ....h...........
 1120 f30f1efa 680f0000 00f2e9f1 feffff90  ....h...........
 1130 f30f1efa 68100000 00f2e9e1 feffff90  ....h...........
 1140 f30f1efa 68110000 00f2e9d1 feffff90  ....h...........
 1150 f30f1efa 68120000 00f2e9c1 feffff90  ....h...........
 1160 f30f1efa 68130000 00f2e9b1 feffff90  ....h...........
 1170 f30f1efa 68140000 00f2e9a1 feffff90  ....h...........
 1180 f30f1efa 68150000 00f2e991 feffff90  ....h...........
 1190 f30f1efa 68160000 00f2e981 feffff90  ....h...........
 11a0 f30f1efa 68170000 00f2e971 feffff90  ....h......q....
 11b0 f30f1efa 68180000 00f2e961 feffff90  ....h......a....
 11c0 f30f1efa 68190000 00f2e951 feffff90  ....h......Q....
 11d0 f30f1efa 681a0000 00f2e941 feffff90  ....h......A....
 11e0 f30f1efa 681b0000 00f2e931 feffff90  ....h......1....
 11f0 f30f1efa 681c0000 00f2e921 feffff90  ....h......!....
Contents of section .plt.got:
 1200 f30f1efa f2ff25ed 5d00000f 1f440000  ......%.]....D..
Contents of section .plt.sec:
 1210 f30f1efa f2ff25d5 5c00000f 1f440000  ......%.\....D..
 1220 f30f1efa f2ff25cd 5c00000f 1f440000  ......%.\....D..
 1230 f30f1efa f2ff25c5 5c00000f 1f440000  ......%.\....D..
 1240 f30f1efa f2ff25bd 5c00000f 1f440000  ......%.\....D..
 1250 f30f1efa f2ff25b5 5c00000f 1f440000  ......%.\....D..
 1260 f30f1efa f2ff25ad 5c00000f 1f440000  ......%.\....D..
 1270 f30f1efa f2ff25a5 5c00000f 1f440000  ......%.\....D..
 1280 f30f1efa f2ff259d 5c00000f 1f440000  ......%.\....D..
 1290 f30f1efa f2ff2595 5c00000f 1f440000  ......%.\....D..
 12a0 f30f1efa f2ff258d 5c00000f 1f440000  ......%.\....D..
 12b0 f30f1efa f2ff2585 5c00000f 1f440000  ......%.\....D..
 12c0 f30f1efa f2ff257d 5c00000f 1f440000  ......%}\....D..
 12d0 f30f1efa f2ff2575 5c00000f 1f440000  ......%u\....D..
 12e0 f30f1efa f2ff256d 5c00000f 1f440000  ......%m\....D..
 12f0 f30f1efa f2ff2565 5c00000f 1f440000  ......%e\....D..
 1300 f30f1efa f2ff255d 5c00000f 1f440000  ......%]\....D..
 1310 f30f1efa f2ff2555 5c00000f 1f440000  ......%U\....D..
 1320 f30f1efa f2ff254d 5c00000f 1f440000  ......%M\....D..
 1330 f30f1efa f2ff2545 5c00000f 1f440000  ......%E\....D..
 1340 f30f1efa f2ff253d 5c00000f 1f440000  ......%=\....D..
 1350 f30f1efa f2ff2535 5c00000f 1f440000  ......%5\....D..
 1360 f30f1efa f2ff252d 5c00000f 1f440000  ......%-\....D..
 1370 f30f1efa f2ff2525 5c00000f 1f440000  ......%%\....D..
 1380 f30f1efa f2ff251d 5c00000f 1f440000  ......%.\....D..
 1390 f30f1efa f2ff2515 5c00000f 1f440000  ......%.\....D..
 13a0 f30f1efa f2ff250d 5c00000f 1f440000  ......%.\....D..
 13b0 f30f1efa f2ff2505 5c00000f 1f440000  ......%.\....D..
 13c0 f30f1efa f2ff25fd 5b00000f 1f440000  ......%.[....D..
 13d0 f30f1efa f2ff25f5 5b00000f 1f440000  ......%.[....D..
Contents of section .text:
 13e0 f30f1efa 31ed4989 d15e4889 e24883e4  ....1.I..^H..H..
 13f0 f050544c 8d05d61e 0000488d 0d5f1e00  .PTL......H.._..
 1400 00488d3d c1000000 ff15d25b 0000f490  .H.=.......[....
 1410 488d3d49 70000048 8d054270 00004839  H.=Ip..H..Bp..H9
 1420 f8741548 8b05ae5b 00004885 c07409ff  .t.H...[..H..t..
 1430 e00f1f80 00000000 c30f1f80 00000000  ................
 1440 488d3d19 70000048 8d351270 00004829  H.=.p..H.5.p..H)
 1450 fe4889f0 48c1ee3f 48c1f803 4801c648  .H..H..?H...H..H
 1460 d1fe7414 488b0585 5b000048 85c07408  ..t.H...[..H..t.
 1470 ffe0660f 1f440000 c30f1f80 00000000  ..f..D..........
 1480 f30f1efa 803dfd6f 00000075 2b554883  .....=.o...u+UH.
 1490 3d625b00 00004889 e5740c48 8b3d665b  =b[...H..t.H.=f[
 14a0 0000e859 fdffffe8 64ffffff c605d56f  ...Y....d......o
 14b0 0000015d c30f1f00 c30f1f80 00000000  ...]............
 14c0 f30f1efa e977ffff fff30f1e fa5383ff  .....w.......S..
 14d0 01745148 89f383ff 02757b48 8b7e0848  .tQH.....u{H.~.H
 14e0 8d35d032 0000e865 feffff48 89059e6f  .5.2...e...H...o
 14f0 00004885 c0743de8 ca080000 4889c381  ..H..t=.....H...
 1500 3811fa22 20747248 8d357a2b 0000bf01  8.." trH.5z+....
 1510 000000b8 00000000 e823feff ffb80000  .........#......
 1520 00005bc3 488b0545 6f000048 89055e6f  ..[.H..Eo..H..^o
 1530 0000ebc3 488b4b08 488b1348 8d35c22a  ....H.K.H..H.5.*
 1540 0000bf01 000000e8 f4fdffff bf080000  ................
 1550 00e81afe ffff488b 16488d35 c12a0000  ......H..H.5.*..
 1560 bf010000 00b80000 0000e8d1 fdffffbf  ................
 1570 08000000 e8f7fdff ff488d3d 482b0000  .........H.=H+..
 1580 e8dbfcff ff488d3d 7c2b0000 e8cffcff  .....H.=|+......
 1590 ffe8e90c 00004889 c7e80f02 00004889  ......H.......H.
 15a0 dfe8240e 0000488d 3d9b2b00 00e8aefc  ..$...H.=.+.....
 15b0 ffffe8c8 0c000048 89c7e812 02000048  .......H.......H
 15c0 89dfe803 0e000048 8d3d6d2a 0000e88d  .......H.=m*....
 15d0 fcffffe8 a70c0000 4889c7e8 6e020000  ........H...n...
 15e0 4889dfe8 e20d0000 488d3d69 2a0000e8  H.......H.=i*...
 15f0 6cfcffff e8860c00 004889c7 e8440300  l........H...D..
 1600 004889df e8c10d00 00488d3d 682b0000  .H.......H.=h+..
 1610 e84bfcff ffe8650c 00004889 c7e8a703  .K....e...H.....
 1620 00004889 dfe8a00d 0000488d 3d362a00  ..H.......H.=6*.
 1630 00e82afc ffffe844 0c000048 89c7e819  ..*....D...H....
 1640 04000048 89dfe87f 0d000048 89dfe8cd  ...H.......H....
 1650 fbffffe9 c5feffff f30f1efa 4881eca8  ............H...
 1660 00000064 488b0425 28000000 48898424  ...dH..%(...H..$
 1670 98000000 31c0488d 4c240c48 8d542408  ....1.H.L$.H.T$.
 1680 4883ec08 488d4424 2850488d 44242c50  H...H.D$(PH.D$,P
 1690 488d4424 30504c8d 4c24344c 8d442430  H.D$0PL.L$4L.D$0
 16a0 488d35f5 2a000048 8d3d6a6e 0000b800  H.5.*..H.=jn....
 16b0 000000e8 78fcffff 4883c420 83f80774  ....x...H.. ...t
 16c0 20b80000 0000488b b4249800 00006448   .....H..$....dH
 16d0 33342528 00000075 2b4881c4 a8000000  34%(...u+H......
 16e0 c3488d7c 2420488d 35db2a00 00e88306  .H.|$ H.5.*.....
 16f0 000085c0 7407b800 000000eb c9b80100  ....t...........
 1700 0000ebc2 e877fbff fff30f1e fa4881ec  .....w.......H..
 1710 98000000 64488b04 25280000 00488984  ....dH..%(...H..
 1720 24880000 0031c048 8d4c240c 488d5424  $....1.H.L$.H.T$
 1730 084c8d44 2410488d 356b2a00 00488d3d  .L.D$.H.5k*..H.=
 1740 c46e0000 e8e7fbff ff83f803 7420b800  .n..........t ..
 1750 00000048 8bb42488 00000064 48333425  ...H..$....dH34%
 1760 28000000 75424881 c4980000 00c3488d  (...uBH.......H.
 1770 5424100f b60284c0 740b83c0 02880248  T$......t......H
 1780 83c201eb ee488d7c 2410488d 35572a00  .....H.|$.H.5W*.
 1790 00e8df05 000085c0 7407b800 000000eb  ........t.......
 17a0 b2b80100 0000ebab e8d3faff fff30f1e  ................
 17b0 fa4883ec 08488d35 542a0000 e8b40500  .H...H.5T*......
 17c0 0085c075 054883c4 08c3e87d 090000eb  ...u.H.....}....
 17d0 f4f30f1e fa534883 ec206448 8b042528  .....SH.. dH..%(
 17e0 00000048 89442418 31c04889 e6e8480a  ...H.D$.1.H...H.
 17f0 0000833c 24007507 837c2404 017405e8  ...<$.u..|$..t..
 1800 48090000 bb020000 00eb08e8 3c090000  H...........<...
 1810 83c30183 fb057f1b 4863d38d 4bfe4863  ........Hc..K.Hc
 1820 c98d43ff 48988b04 8403048c 39049474  ..C.H.......9..t
 1830 dfebd848 8b442418 64483304 25280000  ...H.D$.dH3.%(..
 1840 00750648 83c4205b c3e832fa fffff30f  .u.H.. [..2.....
 1850 1efa4883 ec186448 8b042528 00000048  ..H...dH..%(...H
 1860 89442408 31c0488d 4c240448 89e2488d  .D$.1.H.L$.H..H.
 1870 35a32e00 00e8b6fa ffff83f8 017e1b8b  5............~..
 1880 042483f8 07776489 c0488d15 f02a0000  .$...wd..H...*..
 1890 48630482 4801d03e ffe0e8ad 080000eb  Hc..H..>........
 18a0 deb8ca03 00003944 24047552 488b4424  ......9D$.uRH.D$
 18b0 08644833 04252800 00007549 4883c418  .dH3.%(...uIH...
 18c0 c3b84900 0000ebde b8f50100 00ebd7b8  ..I.............
 18d0 9e000000 ebd0b83e 000000eb c9b84b02  .......>......K.
 18e0 0000ebc2 b8e50300 00ebbbe8 5c080000  ............\...
 18f0 b8000000 00ebafb8 71010000 eba8e849  ........q......I
 1900 080000eb a7e876f9 fffff30f 1efa85ff  ......v.........
 1910 7e295553 4883ec08 89fb83ff 0174228d  ~)USH........t".
 1920 7fffe8e3 ffffff8d 2c008d7b fee8d8ff  ........,..{....
 1930 ffff01e8 4883c408 5b5dc3b8 00000000  ....H...[]......
 1940 c389f8eb eff30f1e fa555348 83ec1864  .........USH...d
 1950 488b0425 28000000 48894424 0831c048  H..%(...H.D$.1.H
 1960 8d4c2404 4889e248 8d35aa2d 0000e8bd  .L$.H..H.5.-....
 1970 f9ffff83 f8027506 833c2404 7405e8c9  ......u..<$.t...
 1980 070000bd 00000000 bb000000 00391c24  .............9.$
 1990 7e0e89df e871ffff ff01c583 c301ebed  ~....q..........
 19a0 396c2404 7517488b 44240864 48330425  9l$.u.H.D$.dH3.%
 19b0 28000000 750e4883 c4185b5d c3e88a07  (...u.H...[]....
 19c0 0000ebe2 e8b7f8ff fff30f1e fa4883ec  .............H..
 19d0 1864488b 04252800 00004889 44240831  .dH..%(...H.D$.1
 19e0 c0488d4c 24044889 e2488d35 282d0000  .H.L$.H..H.5(-..
 19f0 e83bf9ff ff83f801 7e318b04 2483e00f  .;......~1..$...
 1a00 890424b9 00000000 ba000000 008b0424  ..$............$
 1a10 83f80f74 1d83c201 4898488d 357f2900  ...t....H.H.5.).
 1a20 008b0486 89042401 c1ebe2e8 1c070000  ......$.........
 1a30 ebc883fa 0f750639 4c240474 05e80a07  .....u.9L$.t....
 1a40 0000488b 44240864 48330425 28000000  ..H.D$.dH3.%(...
 1a50 75054883 c418c3e8 24f8ffff f30f1efa  u.H.....$.......
 1a60 41545553 4883ec60 64488b04 25280000  ATUSH..`dH..%(..
 1a70 00488944 245831c0 4889e6e8 ba070000  .H.D$X1.H.......
 1a80 bd000000 00eb27e8 c0060000 eb3383c3  ......'......3..
 1a90 0183fb05 7f154863 c54863d3 8b3c9439  ......Hc.Hc..<.9
 1aa0 3c8475ea e8a30600 00ebe344 89e583fd  <.u........D....
 1ab0 057f1748 63c58b04 8483e801 83f80577  ...Hc..........w
 1ac0 c6448d65 014489e3 ebc7be00 000000eb  .D.e.D..........
 1ad0 08488954 cc2083c6 0183fe05 7f1db801  .H.T. ..........
 1ae0 00000048 8d156665 00004863 ce39048c  ...H..fe..Hc.9..
 1af0 7edf488b 520883c0 01ebef48 8b5c2420  ~.H.R......H.\$ 
 1b00 4889d9b8 01000000 eb124863 d0488b54  H.........Hc.H.T
 1b10 d4204889 510883c0 014889d1 83f8057e  . H.Q....H.....~
 1b20 e948c741 08000000 00bd0000 0000eb07  .H.A............
 1b30 488b5b08 83c50183 fd047f11 488b4308  H.[.........H.C.
 1b40 8b003903 7deae801 060000eb e3488b44  ..9.}........H.D
 1b50 24586448 33042528 00000075 094883c4  $XdH3.%(...u.H..
 1b60 605b5d41 5cc3e815 f7fffff3 0f1efa55  `[]A\..........U
 1b70 534883ec 0889fd48 89f3eb27 0fbe0383  SH.....H...'....
 1b80 e8304863 ed489848 8d3cc500 00000048  .0Hc.H.H.<.....H
 1b90 29c74801 ef488d05 44280000 8b2cb848  ).H..H..D(...,.H
 1ba0 83c3010f b60384c0 740e83e8 303c0176  ........t...0<.v
 1bb0 cbe89605 0000ebc4 89e84883 c4085b5d  ..........H...[]
 1bc0 c3f30f1e fa415455 534889fd 4889febf  .....ATUSH..H...
 1bd0 00000000 e892ffff ff4189c4 bb010000  .........A......
 1be0 0083fb06 7f144889 ee89dfe8 7bffffff  ......H.....{...
 1bf0 4439e075 0f83c301 ebe7b800 0000005b  D9.u...........[
 1c00 5d415cc3 b8ffffff ffebf4f3 0f1efa55  ]A\............U
 1c10 534883ec 1864488b 04252800 00004889  SH...dH..%(...H.
 1c20 44240831 c0e85506 00004889 c5bb0000  D$.1..U...H.....
 1c30 0000eb08 e8130500 0083c301 4863c380  ............Hc..
 1c40 7c050000 740783fb 187eeeeb e74889ef  |...t....~...H..
 1c50 e86cffff ff85c075 69488d3d 10260000  .l.....uiH.=.&..
 1c60 e8fbf5ff ff488d3d 3c260000 e8eff5ff  .....H.=<&......
 1c70 ff488d3d 70260000 e8e3f5ff ff488d3d  .H.=p&.......H.=
 1c80 9c260000 e8d7f5ff ff488d3d d0260000  .&.......H.=.&..
 1c90 e8cbf5ff ff488d3d 15250000 e8bff5ff  .....H.=.%......
 1ca0 ff488d7c 2404e81f 07000048 8b442408  .H.|$......H.D$.
 1cb0 64483304 25280000 00750e48 83c4185b  dH3.%(...u.H...[
 1cc0 5dc3e885 040000eb 90e8b2f5 fffff30f  ]...............
 1cd0 1efa5058 4883ec08 488d3d39 270000e8  ..PXH...H.=9'...
 1ce0 7cf5ffff bf030000 00e8b2f6 ffff488d  |.............H.
 1cf0 359c2900 00bf0100 0000b800 000000e8  5.).............
 1d00 3cf6ffff 488b3d55 670000e8 10f6ffff  <...H.=Ug.......
 1d10 bf010000 00e886f6 ffff488d 3d782900  ..........H.=x).
 1d20 00e83af5 ffffbf10 000000e8 40f6ffff  ..:.........@...
 1d30 f30f1efa 50584883 ec084889 fa488d35  ....PXH...H..H.5
 1d40 5d290000 bf010000 00b80000 0000e8ed  ])..............
 1d50 f5ffffbf 08000000 e813f6ff fff30f1e  ................
 1d60 fab80000 0000803f 00740948 83c70183  .......?.t.H....
 1d70 c001ebf2 c3f30f1e fa415455 534889fb  .........ATUSH..
 1d80 4889f5e8 d5ffffff 4189c448 89efe8ca  H.......A..H....
 1d90 ffffff41 39c4751d 0fb60384 c0740f38  ...A9.u......t.8
 1da0 4500751b 4883c301 4883c501 ebeab800  E.u.H...H.......
 1db0 000000eb 05b80100 00005b5d 415cc3b8  ..........[]A\..
 1dc0 01000000 ebf4f30f 1efa5553 4881ec00  ..........USH...
 1dd0 10000048 830c2400 4881ec00 10000048  ...H..$.H......H
 1de0 830c2400 4883ec58 64488b04 25280000  ..$.H..XdH..%(..
 1df0 00488984 24482000 0031c048 8d35ccfe  .H..$H ..1.H.5..
 1e00 ffffbf02 000000e8 c4f4ffff 4889e7be  ............H...
 1e10 40000000 e847f5ff ff85c075 0689c589  @....G.....u....
 1e20 c3eb1948 8d3d2626 0000e831 f4ffffbf  ...H.=&&...1....
 1e30 08000000 e837f5ff ff83c301 4863c348  .....7......Hc.H
 1e40 8d155a62 0000488b 3cc24885 ff741148  ..Zb..H.<.H..t.H
 1e50 89e6e8d9 f3ffff85 c075debd 01000000  .........u......
 1e60 85ed743b 488d7c24 40e86011 000085c0  ..t;H.|$@.`.....
 1e70 7843bf04 000000e8 94f4ffff c70011fa  xC..............
 1e80 2220488b 8c244820 00006448 330c2528  " H..$H ..dH3.%(
 1e90 00000075 454881c4 58200000 5b5dc348  ...uEH..X ..[].H
 1ea0 8d3de225 0000e8b5 f3ffffbf 08000000  .=.%............
 1eb0 e8bbf4ff ff488d54 2440488d 35f12700  .....H.T$@H.5.'.
 1ec0 00bf0100 0000b800 000000e8 70f4ffff  ............p...
 1ed0 bf080000 00e896f4 ffffe8a1 f3fffff3  ................
 1ee0 0f1efac3 f30f1efa 55534883 ec084889  ........USH...H.
 1ef0 fd0fb65d 0084db74 1ee8b2f4 ffff488b  ...]...t......H.
 1f00 004883c5 01480fbe dbf64458 012075e1  .H...H....DX. u.
 1f10 b8000000 00eb05b8 01000000 4883c408  ............H...
 1f20 5b5dc3f3 0f1efa53 4863155d 65000048  [].....SHc.]e..H
 1f30 89d048c1 e0044829 d0488d15 60650000  ..H...H).H..`e..
 1f40 488d3cc2 488b1545 650000be 78000000  H.<.H..Ee...x...
 1f50 e86bf3ff ff4889c3 4885c074 0c4889c7  .k...H..H..t.H..
 1f60 e87fffff ff85c075 bf4889d8 5bc3f30f  .......u.H..[...
 1f70 1efa4155 41545553 4c8d9c24 00c0ffff  ..AUATUSL..$....
 1f80 4881ec00 10000048 830c2400 4c39dc75  H......H..$.L9.u
 1f90 ef4883ec 5889fa49 89f46448 8b042528  .H..X..I..dH..%(
 1fa0 00000048 89842448 40000031 c08b35d9  ...H..$H@..1..5.
 1fb0 6400008d 46ff4898 4889c148 c1e10448  d...F.H.H..H...H
 1fc0 29c14889 c8488d0d d4640000 4c8d04c1  ).H..H...d..L...
 1fd0 48c7c1ff ffffffb8 00000000 4c89c7f2  H...........L...
 1fe0 ae4889c8 48f7d048 83c06348 3d002000  .H..H..H..cH=. .
 1ff0 000f87b3 00000085 d20f84cb 00000048  ...............H
 2000 8d05cf26 0000488d 5c244048 83ec0841  ...&..H.\$@H...A
 2010 5056504c 8d0d2658 0000448b 051f6000  PVPL..&X..D...`.
 2020 00488d0d b5260000 ba002000 00be0100  .H...&.... .....
 2030 00004889 dfb80000 0000e881 f3ffff48  ..H............H
 2040 83c4204c 8d8c2440 20000041 b8000000  .. L..$@ ..A....
 2050 004889d9 488d15e5 4f000048 8d35de53  .H..H...O..H.5.S
 2060 0000488d 3dd75b00 00e87011 000089c5  ..H.=.[...p.....
 2070 4889e7be 40000000 e8e3f2ff ff4189c5  H...@........A..
 2080 85c07552 89c34863 c3488d15 10600000  ..uR..Hc.H...`..
 2090 488b3cc2 4885ff74 594889e6 e88ff1ff  H.<.H..tYH......
 20a0 ff85c074 4783c301 ebdc488d 350f2400  ...tG.....H.5.$.
 20b0 00bf0100 0000b800 000000e8 80f2ffff  ................
 20c0 bf080000 00e8a6f2 ffff488d 05fb2500  ..........H...%.
 20d0 00e930ff ffff488d 3d0b2400 00e87ef1  ..0...H.=.$...~.
 20e0 ffffbf08 000000e8 84f2ffff 41bd0100  ............A...
 20f0 00004183 fd017425 85ed7834 488b8424  ..A...t%..x4H..$
 2100 48400000 64483304 25280000 00753848  H@..dH3.%(...u8H
 2110 81c45840 00005b5d 415c415d c34863db  ..X@..[]A\A].Hc.
 2120 488d0599 2600008b 04984189 0424ebc8  H...&.....A..$..
 2130 488dbc24 40200000 e823f1ff ffbf0000  H..$@ ...#......
 2140 0000e829 f2ffffe8 34f1ffff f30f1efa  ...)....4.......
 2150 55534883 ec686448 8b042528 00000048  USH..hdH..%(...H
 2160 89442458 31c0488d 3d7f2500 00e8eef0  .D$X1.H.=.%.....
 2170 ffff488d 3d7c2500 00e8e2f0 ffff488d  ..H.=|%.......H.
 2180 7c2410be 40000000 e8d3f1ff ff85c075  |$..@..........u
 2190 2a89c589 c34863c3 488d1501 5f000048  *....Hc.H..._..H
 21a0 8b3cc248 85ff742e 488d7424 10e87ef0  .<.H..t.H.t$..~.
 21b0 ffff85c0 741b83c3 01ebda48 8d3d2623  ....t......H.=&#
 21c0 0000e899 f0ffffbf 08000000 e89ff1ff  ................
 21d0 ffbd0100 0000c744 240c0000 0000488d  .......D$.....H.
 21e0 74240cbf 00000000 e881fdff ff4863db  t$...........Hc.
 21f0 488d05c9 2500008b 4c240c39 0c987504  H...%...L$.9..u.
 2200 85ed7520 488d3505 230000bf 01000000  ..u H.5.#.......
 2210 b8000000 00e826f1 ffffbf08 000000e8  ......&.........
 2220 4cf1ffff 488d3d2d 230000e8 30f0ffff  L...H.=-#...0...
 2230 bf080000 00e836f1 fffff30f 1efa4883  ......6.......H.
 2240 ec084889 f2488d4e 04488d46 1450488d  ..H..H.N.H.F.PH.
 2250 4610504c 8d4e0c4c 8d460848 8d35aa24  F.PL.N.L.F.H.5.$
 2260 0000b800 000000e8 c4f0ffff 4883c410  ............H...
 2270 83f8057e 054883c4 08c3e8cd fefffff3  ...~.H..........
 2280 0f1efa48 83ec08b8 00000000 e892fcff  ...H............
 2290 ff4885c0 74728b15 f0610000 4863ca48  .H..tr...a..Hc.H
 22a0 89c848c1 e0044829 c8488d0d f0610000  ..H...H).H...a..
 22b0 488d34c1 48c7c1ff ffffffb8 00000000  H.4.H...........
 22c0 4889f7f2 ae48f7d1 4883e901 83f9760f  H....H..H.....v.
 22d0 8fab0000 0083e901 4863c948 63fa4889  ........Hc.Hc.H.
 22e0 f848c1e0 044829f8 488d3db1 61000048  .H...H).H.=.a..H
 22f0 8d04c7c6 04080083 c2018915 8c610000  .............a..
 2300 4889f048 83c408c3 488b0561 61000048  H..H....H..aa..H
 2310 39057a61 0000741b 488d3d1d 240000e8  9.za..t.H.=.$...
 2320 eceeffff 4885c074 20bf0000 0000e83d  ....H..t ......=
 2330 f0ffff48 8d3de423 0000e821 efffffbf  ...H.=.#...!....
 2340 08000000 e827f0ff ff488b05 20610000  .....'...H.. a..
 2350 48890539 610000b8 00000000 e8c2fbff  H..9a...........
 2360 ff4885c0 0f852cff ffff488d 3dad2300  .H....,...H.=.#.
 2370 00e8eaee ffffbf00 000000e8 f0efffff  ................
 2380 488d3dc0 230000e8 d4eeffff 8b05fa60  H.=.#..........`
 2390 00008d50 018915f1 60000048 98486bc0  ...P....`..H.Hk.
 23a0 78488d15 f8600000 48be2a2a 2a747275  xH...`..H.***tru
 23b0 6e6348bf 61746564 2a2a2a00 48893402  ncH.ated***.H.4.
 23c0 48897c02 08e882fd fffff30f 1efa4154  H.|...........AT
 23d0 55534883 ec504989 fc64488b 04252800  USH..PI..dH..%(.
 23e0 00004889 44244831 c04889e7 be400000  ..H.D$H1.H...@..
 23f0 00e86aef ffff85c0 750689c5 89c3eb19  ..j.....u.......
 2400 488d3de1 200000e8 54eeffff bf080000  H.=. ...T.......
 2410 00e85aef ffff83c3 014863c3 488d157d  ..Z......Hc.H..}
 2420 5c000048 8b3cc248 85ff7411 4889e6e8  \..H.<.H..t.H...
 2430 fcedffff 85c075de bd010000 0041c704  ......u......A..
 2440 24000000 004c89e6 bf010000 00e81cfb  $....L..........
 2450 ffff4863 db488d05 64230000 8b049841  ..Hc.H..d#.....A
 2460 39042475 2a85ed74 26833d1c 60000006  9.$u*..t&.=.`...
 2470 743d488b 44244864 48330425 28000000  t=H.D$HdH3.%(...
 2480 0f858700 00004883 c4505b5d 415cc348  ......H..P[]A\.H
 2490 8d357a20 0000bf01 000000b8 00000000  .5z ............
 24a0 e89beeff ffbf0800 0000e8c1 eeffffe8  ................
 24b0 a4f1ffff 85c0751a 488d3d61 210000e8  ......u.H.=a!...
 24c0 9cedffff 488d3d85 210000e8 90edffff  ....H.=.!.......
 24d0 eba0e832 f2ffff85 c0742448 8d3d9e20  ...2.....t$H.=. 
 24e0 0000e879 edffff48 8d3dba20 0000e86d  ...y...H.=. ...m
 24f0 edffffb8 00000000 e80ef7ff ffebb948  ...............H
 2500 8d3dda20 0000e855 edffffeb abe86eed  .=. ...U......n.
 2510 ffff8937 c7470400 00000048 8d471048  ...7.G.....H.G.H
 2520 894708c3 f30f1efa 50584883 ec08b900  .G......PXH.....
 2530 00000048 8d15a622 0000be01 00000048  ...H...".......H
 2540 8b3d3a5f 0000b800 000000e8 40eeffff  .=:_........@...
 2550 bf010000 00e816ee ffff4155 41545553  ..........AUATUS
 2560 4883ec08 4189fc48 89f54989 d54889d3  H...A..H..I..H..
 2570 eb064829 c34801c5 4885db74 244889da  ..H).H..H..t$H..
 2580 4889ee44 89e7e8e5 ecffff48 85c07fe2  H..D.......H....
 2590 e8abecff ff833804 7515b800 000000eb  ......8.u.......
 25a0 d14c89e8 4883c408 5b5d415c 415dc348  .L..H...[]A\A].H
 25b0 c7c0ffff ffffebec 41554154 55534883  ........AUATUSH.
 25c0 ec084889 fb4989f5 4989d4eb 17e86eec  ..H..I..I.....n.
 25d0 ffff8338 04740d48 c7c0ffff ffffeb54  ...8.t.H.......T
 25e0 48896b08 8b6b0485 ed7f2348 8d6b108b  H.k..k....#H.k..
 25f0 3bba0020 00004889 eee8b2ec ffff8943  ;.. ..H........C
 2600 0485c078 c875d9b8 00000000 eb2689e8  ...x.u.......&..
 2610 4c39e072 034489e5 4c63e548 8b73084c  L9.r.D..Lc.H.s.L
 2620 89e24c89 efe8d6ec ffff4c01 6308296b  ..L.......L.c.)k
 2630 044c89e0 4883c408 5b5d415c 415dc341  .L..H...[]A\A].A
 2640 55415455 534883ec 184989fd 4889f549  UATUSH...I..H..I
 2650 89d46448 8b042528 00000048 89442408  ..dH..%(...H.D$.
 2660 31c0bb01 000000eb 1885c075 654883fb  1..........ueH..
 2670 01753db8 00000000 eb3d4883 c3014889  .u=......=H...H.
 2680 d54c39e3 732a488d 742407ba 01000000  .L9.s*H.t$......
 2690 4c89efe8 20ffffff 83f80175 cc488d55  L... ......u.H.U
 26a0 010fb644 24078845 003c0a75 cd4889d5  ...D$..E.<.u.H..
 26b0 c6450000 4889d848 8b4c2408 6448330c  .E..H..H.L$.dH3.
 26c0 25280000 00751448 83c4185b 5d415c41  %(...u.H...[]A\A
 26d0 5dc348c7 c0ffffff ffebdce8 a0ebffff  ].H.............
 26e0 41545553 4883ec10 4889fb48 89f56448  ATUSH...H..H..dH
 26f0 8b042528 00000048 89442408 31c048c7  ..%(...H.D$.1.H.
 2700 c1ffffff fff2ae48 f7d18d41 ffeb0f44  .......H...A...D
 2710 88450048 8d6d0148 83c30144 89e0448d  .E.H.m.H...D..D.
 2720 60ff85c0 0f84a800 0000440f b6034180  `.........D...A.
 2730 f82a0f94 c24180f8 2d0f94c0 08c275cf  .*...A..-.....u.
 2740 4180f82e 74c94180 f85f74c3 418d40d0  A...t.A.._t.A.@.
 2750 3c0976bb 418d40bf 3c1976b3 418d409f  <.v.A.@.<.v.A.@.
 2760 3c1976ab 4180f820 7456418d 40e03c5f  <.v.A.. tVA.@.<_
 2770 0f96c241 80f8090f 94c008c2 744f4889  ...A........tOH.
 2780 e7450fb6 c0488d0d 09210000 ba080000  .E...H...!......
 2790 00be0100 0000b800 000000e8 20ecffff  ............ ...
 27a0 0fb60424 8845000f b6442401 8845010f  ...$.E...D$..E..
 27b0 b6442402 88450248 8d6d03e9 57ffffff  .D$..E.H.m..W...
 27c0 c645002b 488d6d01 e94affff ffb8ffff  .E.+H.m..J......
 27d0 ffff488b 74240864 48333425 28000000  ..H.t$.dH34%(...
 27e0 75094883 c4105b5d 415cc3e8 90eaffff  u.H...[]A\......
 27f0 f30f1efa 41574156 41554154 55534c8d  ....AWAVAUATUSL.
 2800 9c240060 ffff4881 ec001000 0048830c  .$.`..H......H..
 2810 24004c39 dc75ef48 83ec6849 89fc8974  $.L9.u.H..hI...t
 2820 241c4889 54240849 89cd4c89 4424104d  $.H.T$.I..L.D$.M
 2830 89ce488b ac24a0a0 00006448 8b042528  ..H..$....dH..%(
 2840 00000048 89842458 a0000031 c0c74424  ...H..$X...1..D$
 2850 2c000000 00ba0000 0000be01 000000bf  ,...............
 2860 02000000 e867ebff ff85c00f 88a50200  .....g..........
 2870 0089c34c 89e7e865 eaffff48 85c00f84  ...L...e...H....
 2880 de020000 4c8d7c24 3048c744 24300000  ....L.|$0H.D$0..
 2890 000048c7 44243800 00000066 c7442430  ..H.D$8....f.D$0
 28a0 02004863 5014488b 4018488b 30488d7c  ..HcP.H.@.H.0H.|
 28b0 2434b90c 000000e8 34eaffff 0fb77424  $4......4.....t$
 28c0 1c66c1c6 08668974 2432ba10 0000004c  .f...f.t$2.....L
 28d0 89fe89df e8a7eaff ff85c00f 88f70200  ................
 28e0 0048c7c6 ffffffff b8000000 004889f1  .H...........H..
 28f0 4c89f7f2 ae4889ca 48f7d248 89f1488b  L....H..H..H..H.
 2900 7c2408f2 ae48f7d1 4989c848 89f14c89  |$...H..I..H..L.
 2910 eff2ae48 f7d14d8d 4408fe48 89f1488b  ...H..M.D..H..H.
 2920 7c2410f2 ae4889c8 48f7d049 8d4c00ff  |$...H..H..I.L..
 2930 488d4452 fd488d84 01800000 00483d00  H.DR.H.......H=.
 2940 2000000f 87f70200 00488db4 24504000   ........H..$P@.
 2950 00b90004 0000b800 00000048 89f7f348  ...........H...H
 2960 ab4c89f7 e877fdff ff85c00f 88420300  .L...w.......B..
 2970 004c8dbc 24502000 004883ec 08415448  .L..$P ..H...ATH
 2980 8d842460 40000050 41554c8b 4c24304c  ..$`@..PAUL.L$0L
 2990 8b442428 488d0d6d 1e0000ba 00200000  .D$(H..m..... ..
 29a0 be010000 004c89ff b8000000 00e80eea  .....L..........
 29b0 ffff48c7 c1ffffff ffb80000 00004c89  ..H...........L.
 29c0 fff2ae48 f7d1488d 51ff4883 c4204c89  ...H..H.Q.H.. L.
 29d0 fe89dfe8 82fbffff 4885c00f 885d0300  ........H....]..
 29e0 004c8d64 244089de 4c89e7e8 22fbffff  .L.d$@..L..."...
 29f0 488db424 50200000 ba002000 004c89e7  H..$P .... ..L..
 2a00 e83afcff ff4885c0 0f8e9c03 0000488d  .:...H........H.
 2a10 4c242c48 8d942450 60000048 8dbc2450  L$,H..$P`..H..$P
 2a20 2000004c 8d842450 80000048 8d356a1e   ..L..$P...H.5j.
 2a30 0000b800 000000e8 f4e8ffff 488db424  ............H..$
 2a40 50200000 b9030000 00488d3d 631e0000  P .......H.=c...
 2a50 f3a60f97 c01c0084 c00f84cb 03000048  ...............H
 2a60 8db42450 20000048 8d7c2440 ba002000  ..$P ..H.|$@.. .
 2a70 00e8c9fb ffff4885 c07fc148 b8457272  ......H....H.Err
 2a80 6f723a20 4348ba6c 69656e74 20756e48  or: CH.lient unH
 2a90 89450048 89550848 b861626c 6520746f  .E.H.U.H.able to
 2aa0 2048ba72 65616420 68656148 89451048   H.read heaH.E.H
 2ab0 89551848 b8646572 73206672 6f48ba6d  .U.H.ders froH.m
 2ac0 20417574 6f6c6148 89452048 89552848   AutolaH.E H.U(H
 2ad0 b8622073 65727665 72488945 30c64538  .b serverH.E0.E8
 2ae0 0089dfe8 b8e7ffff b8ffffff ff488b9c  .............H..
 2af0 2458a000 00644833 1c252800 00000f85  $X...dH3.%(.....
 2b00 96040000 4881c468 a000005b 5d415c41  ....H..h...[]A\A
 2b10 5d415e41 5fc348b8 4572726f 723a2043  ]A^A_.H.Error: C
 2b20 48ba6c69 656e7420 756e4889 45004889  H.lient unH.E.H.
 2b30 550848b8 61626c65 20746f20 48ba6372  U.H.able to H.cr
 2b40 65617465 20734889 45104889 5518c745  eate sH.E.H.U..E
 2b50 206f636b 6566c745 247400b8 ffffffff   ockef.E$t......
 2b60 eb8b48b8 4572726f 723a2044 48ba4e53  ..H.Error: DH.NS
 2b70 20697320 756e4889 45004889 550848b8   is unH.E.H.U.H.
 2b80 61626c65 20746f20 48ba7265 736f6c76  able to H.resolv
 2b90 65204889 45104889 551848b8 4175746f  e H.E.H.U.H.Auto
 2ba0 6c616220 48ba7365 72766572 20614889  lab H.server aH.
 2bb0 45204889 5528c745 30646472 6566c745  E H.U(.E0ddref.E
 2bc0 347373c6 45360089 dfe8d2e6 ffffb8ff  4ss.E6..........
 2bd0 ffffffe9 15ffffff 48b84572 726f723a  ........H.Error:
 2be0 205548ba 6e61626c 6520746f 48894500   UH.nable toH.E.
 2bf0 48895508 48b82063 6f6e6e65 637448ba  H.U.H. connectH.
 2c00 20746f20 74686520 48894510 48895518   to the H.E.H.U.
 2c10 48b84175 746f6c61 62204889 4520c745  H.Autolab H.E .E
 2c20 28736572 7666c745 2c6572c6 452e0089  (servf.E,er.E...
 2c30 dfe86ae6 ffffb8ff ffffffe9 adfeffff  ..j.............
 2c40 48b84572 726f723a 205248ba 6573756c  H.Error: RH.esul
 2c50 74207374 48894500 48895508 48b87269  t stH.E.H.U.H.ri
 2c60 6e672074 6f6f48ba 206c6172 67652e20  ng tooH. large. 
 2c70 48894510 48895518 48b8496e 63726561  H.E.H.U.H.Increa
 2c80 736548ba 20535542 4d495452 48894520  seH. SUBMITRH.E 
 2c90 48895528 48b85f4d 41584255 46004889  H.U(H._MAXBUF.H.
 2ca0 453089df e8f7e5ff ffb8ffff ffffe93a  E0.............:
 2cb0 feffff48 b8457272 6f723a20 5248ba65  ...H.Error: RH.e
 2cc0 73756c74 20737448 89450048 89550848  sult stH.E.H.U.H
 2cd0 b872696e 6720636f 6e48ba74 61696e73  .ring conH.tains
 2ce0 20616e48 89451048 89551848 b820696c   anH.E.H.U.H. il
 2cf0 6c656761 6c48ba20 6f722075 6e707248  legalH. or unprH
 2d00 89452048 89552848 b8696e74 61626c65  .E H.U(H.intable
 2d10 2048ba63 68617261 63746548 89453048   H.characteH.E0H
 2d20 89553866 c7454072 2ec64542 0089dfe8  .U8f.E@r..EB....
 2d30 6ce5ffff b8ffffff ffe9affd ffff48b8  l.............H.
 2d40 4572726f 723a2043 48ba6c69 656e7420  Error: CH.lient 
 2d50 756e4889 45004889 550848b8 61626c65  unH.E.H.U.H.able
 2d60 20746f20 48ba7772 69746520 746f4889   to H.write toH.
 2d70 45104889 551848b8 20746865 20417574  E.H.U.H. the Aut
 2d80 48ba6f6c 61622073 65724889 45204889  H.olab serH.E H.
 2d90 5528c745 30766572 0089dfe8 00e5ffff  U(.E0ver........
 2da0 b8ffffff ffe943fd ffff48b8 4572726f  ......C...H.Erro
 2db0 723a2043 48ba6c69 656e7420 756e4889  r: CH.lient unH.
 2dc0 45004889 550848b8 61626c65 20746f20  E.H.U.H.able to 
 2dd0 48ba7265 61642066 69724889 45104889  H.read firH.E.H.
 2de0 551848b8 73742068 65616465 48ba7220  U.H.st headeH.r 
 2df0 66726f6d 20414889 45204889 552848b8  from AH.E H.U(H.
 2e00 75746f6c 61622073 48894530 c7453865  utolab sH.E0.E8e
 2e10 72766566 c7453c72 0089dfe8 80e4ffff  rvef.E<r........
 2e20 b8ffffff ffe9c3fc ffff488d b4245020  ..........H..$P 
 2e30 0000488d 7c2440ba 00200000 e8fef7ff  ..H.|$@.. ......
 2e40 ff4885c0 0f8e9600 0000448b 44242c41  .H........D.D$,A
 2e50 81f8c800 00000f85 05010000 488db424  ............H..$
 2e60 50200000 4889efe8 e4e3ffff 89dfe82d  P ..H..........-
 2e70 e4ffffb9 04000000 488d3d2e 1a000048  ........H.=....H
 2e80 89eef3a6 0f97c01c 000fbec0 85c00f84  ................
 2e90 59fcffff b9050000 00488d3d 111a0000  Y........H.=....
 2ea0 4889eef3 a60f97c0 1c000fbe c085c00f  H...............
 2eb0 8438fcff ffb90300 0000488d 3df51900  .8........H.=...
 2ec0 004889ee f3a60f97 c01c000f bec085c0  .H..............
 2ed0 0f8417fc ffffb8ff ffffffe9 0dfcffff  ................
 2ee0 48b84572 726f723a 204348ba 6c69656e  H.Error: CH.lien
 2ef0 7420756e 48894500 48895508 48b86162  t unH.E.H.U.H.ab
 2f00 6c652074 6f2048ba 72656164 20737461  le to H.read sta
 2f10 48894510 48895518 48b87475 73206d65  H.E.H.U.H.tus me
 2f20 737348ba 61676520 66726f6d 48894520  ssH.age fromH.E 
 2f30 48895528 48b82041 75746f6c 616248ba  H.U(H. AutolabH.
 2f40 20736572 76657200 48894530 48895538   server.H.E0H.U8
 2f50 89dfe849 e3ffffb8 ffffffff e98cfbff  ...I............
 2f60 ff4c8d8c 24508000 00488d0d f8180000  .L..$P...H......
 2f70 48c7c2ff ffffffbe 01000000 4889efb8  H...........H...
 2f80 00000000 e837e4ff ff89dfe8 10e3ffff  .....7..........
 2f90 b8ffffff ffe953fb ffffe8e1 e2fffff3  ......S.........
 2fa0 0f1efa85 ff742653 89fb781a 488d3571  .....t&S..x.H.5q
 2fb0 f5ffffbf 0e000000 e813e3ff ff89dfe8  ................
 2fc0 cce2ffff 5bc3bb00 000000eb dfc3f30f  ....[...........
 2fd0 1efa4154 55534883 ec204889 fd64488b  ..ATUSH.. H..dH.
 2fe0 04252800 00004889 44241831 c0be0100  .%(...H.D$.1....
 2ff0 0000bf0d 000000e8 d4e2ffff be010000  ................
 3000 00bf1d00 0000e8c5 e2ffffbe 01000000  ................
 3010 bf1d0000 00e8b6e2 ffffba00 000000be  ................
 3020 01000000 bf020000 00e8a2e3 ffff85c0  ................
 3030 0f889c00 000089c3 488d3d7a 180000e8  ........H.=z....
 3040 9ce2ffff 4885c00f 84d10000 004989e4  ....H........I..
 3050 48c70424 00000000 48c74424 08000000  H..$....H.D$....
 3060 0066c704 24020048 63501448 8b401848  .f..$..HcP.H.@.H
 3070 8b30488d 7c2404b9 0c000000 e86fe2ff  .0H.|$.......o..
 3080 ff66c744 24023039 ba100000 004c89e6  .f.D$.09.....L..
 3090 89dfe8e9 e2ffff85 c00f88e7 00000089  ................
 30a0 dfe8fae1 ffff66c7 45004f4b c6450200  ......f.E.OK.E..
 30b0 b8000000 00488b4c 24186448 330c2528  .....H.L$.dH3.%(
 30c0 0000000f 85100100 004883c4 205b5d41  .........H.. []A
 30d0 5cc348b8 4572726f 723a2043 48ba6c69  \.H.Error: CH.li
 30e0 656e7420 756e4889 45004889 550848b8  ent unH.E.H.U.H.
 30f0 61626c65 20746f20 48ba6372 65617465  able to H.create
 3100 20734889 45104889 5518c745 206f636b   sH.E.H.U..E ock
 3110 6566c745 247400b8 ffffffff eb9748b8  ef.E$t........H.
 3120 4572726f 723a2044 48ba4e53 20697320  Error: DH.NS is 
 3130 756e4889 45004889 550848b8 61626c65  unH.E.H.U.H.able
 3140 20746f20 48ba7265 736f6c76 65204889   to H.resolve H.
 3150 45104889 551848b8 73657276 65722061  E.H.U.H.server a
 3160 48894520 c7452864 64726566 c7452c73  H.E .E(ddref.E,s
 3170 73c6452e 0089dfe8 24e1ffff b8ffffff  s.E.....$.......
 3180 ffe92fff ffff48b8 4572726f 723a2055  ../...H.Error: U
 3190 48ba6e61 626c6520 746f4889 45004889  H.nable toH.E.H.
 31a0 550848b8 20636f6e 6e656374 48ba2074  U.H. connectH. t
 31b0 6f207365 72764889 45104889 551866c7  o servH.E.H.U.f.
 31c0 45206572 c6452200 89dfe8d1 e0ffffb8  E er.E".........
 31d0 ffffffff e9dcfeff ffe8a2e0 fffff30f  ................
 31e0 1efa534c 89cb4585 c0751848 85ff7405  ..SL..E..u.H..t.
 31f0 803f0075 3766c703 4f4bc643 02004489  .?.u7f..OK.C..D.
 3200 c05bc348 89ca488d 35bc1600 00bf0100  .[.H..H.5.......
 3210 0000b800 000000e8 24e1ffff 66c7034f  ........$...f..O
 3220 4bc64302 00b80000 0000ebd5 4883ec08  K.C.........H...
 3230 41514989 c94989d0 4889f948 89f2be39  AQI..I..H..H...9
 3240 30000048 8d3d6f16 0000e8a1 f5ffff48  0..H.=o........H
 3250 83c410eb ac662e0f 1f840000 00000090  .....f..........
 3260 f30f1efa 41574c8d 3d5b3a00 00415649  ....AWL.=[:..AVI
 3270 89d64155 4989f541 544189fc 55488d2d  ..AUI..ATA..UH.-
 3280 4c3a0000 534c29fd 4883ec08 e86fddff  L:..SL).H....o..
 3290 ff48c1fd 03741f31 db0f1f80 00000000  .H...t.1........
 32a0 4c89f24c 89ee4489 e741ff14 df4883c3  L..L..D..A...H..
 32b0 014839dd 75ea4883 c4085b5d 415c415d  .H9.u.H...[]A\A]
 32c0 415e415f c366662e 0f1f8400 00000000  A^A_.ff.........
 32d0 f30f1efa c3                          .....           
Contents of section .fini:
 32d8 f30f1efa 4883ec08 4883c408 c3        ....H...H....   
Contents of section .rodata:
 4000 01000200 25733a20 4572726f 723a2043  ....%s: Error: C
 4010 6f756c64 6e277420 6f70656e 2025730a  ouldn't open %s.
 4020 00557361 67653a20 2573205b 3c696e70  .Usage: %s [<inp
 4030 75745f66 696c653e 5d0a0054 68617427  ut_file>]..That'
 4040 73206e75 6d626572 20322e20 4b656570  s number 2. Keep
 4050 20676f69 6e672100 48616c66 77617920   going!.Halfway 
 4060 74686572 65210047 6f6f6420 776f726b  there!.Good work
 4070 2120204f 6e20746f 20746865 206e6578  !  On to the nex
 4080 742e2e2e 00000000 446f6e27 74207472  t.......Don't tr
 4090 7920746f 206d616b 65207468 6520626f  y to make the bo
 40a0 6d622072 756e206f 6e20796f 7572206c  mb run on your l
 40b0 6f63616c 206d6163 68696e65 21282a2f  ocal machine!(*/
 40c0 77efbcbc 2a290000 57656c63 6f6d6520  w...*)..Welcome 
 40d0 746f2044 722e2045 76696c27 73206c69  to Dr. Evil's li
 40e0 74746c65 20626f6d 622e2059 6f752068  ttle bomb. You h
 40f0 61766520 36207068 61736573 20776974  ave 6 phases wit
 4100 68000000 00000000 77686963 6820746f  h.......which to
 4110 20626c6f 7720796f 75727365 6c662075   blow yourself u
 4120 702e2048 61766520 61206e69 63652064  p. Have a nice d
 4130 61792120 4d756120 68612068 61206861  ay! Mua ha ha ha
 4140 21000000 00000000 50686173 65203120  !.......Phase 1 
 4150 64656675 7365642e 20486f77 2061626f  defused. How abo
 4160 75742074 6865206e 65787420 6f6e653f  ut the next one?
 4170 00000000 00000000 536f2079 6f752067  ........So you g
 4180 6f742074 68617420 6f6e652e 20205472  ot that one.  Tr
 4190 79207468 6973206f 6e652e00 25642025  y this one..%d %
 41a0 64202564 20256420 25642025 64202573  d %d %d %d %d %s
 41b0 0009536f 2c207769 6c6c2079 6f752074  ..So, will you t
 41c0 616b6520 69743f00 4e6f7468 696e6754  ake it?.NothingT
 41d0 68617448 61734d65 616e696e 67317345  hatHasMeaning1sE
 41e0 6173792e 2e2e0000 30303047 63757b46  asy.....000Gcu{F
 41f0 71677570 76477076 67743370 76714974  qgupvGpvgt3pvqIt
 4200 71797057 724e6b68 67300000 00000000  qypWrNkhg0......
 4210 4576656e 20612077 656c6c2d 63726166  Even a well-craf
 4220 74656420 67756e20 77696c6c 206a616d  ted gun will jam
 4230 20736f6d 6574696d 65732e20 4c696665   sometimes. Life
 4240 20697320 6e6f2064 69666665 72656e74   is no different
 4250 2c20736f 20646f6e 7420776f 72727920  , so dont worry 
 4260 61626f75 74206974 7e000000 00000000  about it~.......
 4270 556e6265 6c696576 61626c65 2120596f  Unbelievable! Yo
 4280 75277665 20646566 75736564 20746865  u've defused the
 4290 20736563 72657420 73746167 6521204a   secret stage! J
 42a0 65737573 21000000 0944722e 20457669  esus!....Dr. Evi
 42b0 6c207365 6e647320 796f7520 616e2069  l sends you an i
 42c0 6e766974 6174696f 6e20746f 206a6f69  nvitation to joi
 42d0 6e206869 73206e65 66617269 6f757320  n his nefarious 
 42e0 70617274 792e0000 09486520 6f666665  party....He offe
 42f0 72656420 796f7520 63757474 696e672d  red you cutting-
 4300 65646765 206c6162 73207769 7468206d  edge labs with m
 4310 6f6e6579 20746f20 6275726e 2e000000  oney to burn....
 4320 09426c6f 6f647920 68656c6c 2120596f  .Bloody hell! Yo
 4330 75206b6e 6f772069 74206973 2070726f  u know it is pro
 4340 6261626c 7920796f 7572206c 61737420  bably your last 
 4350 6368616e 63652069 6e206c69 66650000  chance in life..
 4360 09746f20 6f627461 696e2061 6c6c2074  .to obtain all t
 4370 68617420 796f7520 77616e74 2e2e2e00  hat you want....
 4380 21d5ffff 77d5ffff 41d5ffff 48d5ffff  !...w...A...H...
 4390 4fd5ffff 56d5ffff 5dd5ffff 64d5ffff  O...V...]...d...
 43a0 0a000000 02000000 0e000000 07000000  ................
 43b0 08000000 0c000000 0f000000 0b000000  ................
 43c0 00000000 04000000 01000000 0d000000  ................
 43d0 03000000 09000000 06000000 05000000  ................
 43e0 06000000 01000000 05000000 04000000  ................
 43f0 00000000 03000000 02000000 00000000  ................
 4400 04000000 02000000 01000000 01000000  ................
 4410 05000000 06000000 536f2079 6f752074  ........So you t
 4420 68696e6b 20796f75 2063616e 2073746f  hink you can sto
 4430 70207468 6520626f 6d622077 69746820  p the bomb with 
 4440 6374726c 2d632c20 646f2079 6f753f00  ctrl-c, do you?.
 4450 496e6974 69616c69 7a617469 6f6e2065  Initialization e
 4460 72726f72 3a205275 6e6e696e 67206f6e  rror: Running on
 4470 20616e20 696c6c65 67616c20 686f7374   an illegal host
 4480 205b315d 00000000 496e6974 69616c69   [1]....Initiali
 4490 7a617469 6f6e2065 72726f72 3a205275  zation error: Ru
 44a0 6e6e696e 67206f6e 20616e20 696c6c65  nning on an ille
 44b0 67616c20 686f7374 205b325d 00000000  gal host [2]....
 44c0 4552524f 523a2049 6e707574 20737472  ERROR: Input str
 44d0 696e6720 69732074 6f6f206c 61726765  ing is too large
 44e0 2e000000 00000000 4572726f 723a2052  ........Error: R
 44f0 756e6e69 6e67206f 6e20616e 20696c6c  unning on an ill
 4500 6567616c 20686f73 74000000 00000000  egal host.......
 4510 446f6e27 74207472 7920746f 206d616b  Don't try to mak
 4520 65207468 6520626f 6d62206e 6f742065  e the bomb not e
 4530 78706c6f 6465206f 6e20796f 7572206c  xplode on your l
 4540 6f63616c 206d6163 68696e65 21282a2f  ocal machine!(*/
 4550 77efbcbc 2a290000 596f7572 20696e73  w...*)..Your ins
 4560 74727563 746f7220 68617320 6265656e  tructor has been
 4570 206e6f74 69666965 642e0000 00000000   notified.......
 4580 43757273 65732c20 796f7527 76652066  Curses, you've f
 4590 6f756e64 20746865 20736563 72657420  ound the secret 
 45a0 70686173 65210000 42757420 66696e64  phase!..But find
 45b0 696e6720 69742061 6e642073 6f6c7669  ing it and solvi
 45c0 6e672069 74206172 65207175 69746520  ng it are quite 
 45d0 64696666 6572656e 742e2e2e 00000000  different.......
 45e0 446f2079 6f752074 68696e6b 20796f75  Do you think you
 45f0 20726561 6c6c7920 74726967 67657220   really trigger 
 4600 74686520 73656372 65742070 68617365  the secret phase
 4610 3f204d75 61206861 20686120 68612100  ? Mua ha ha ha!.
 4620 436f6e67 72617475 6c617469 6f6e7321  Congratulations!
 4630 20596f75 27766520 64656675 73656420   You've defused 
 4640 74686520 626f6d62 21000000 00000000  the bomb!.......
 4650 596f7572 20696e73 74727563 746f7220  Your instructor 
 4660 68617320 6265656e 206e6f74 69666965  has been notifie
 4670 6420616e 64207769 6c6c2076 65726966  d and will verif
 4680 7920796f 75722073 6f6c7574 696f6e2e  y your solution.
 4690 0057656c 6c2e2e2e 004f4b2e 203a2d29  .Well....OK. :-)
 46a0 00496e76 616c6964 20706861 73652573  .Invalid phase%s
 46b0 0a00496e 69746961 6c697a61 74696f6e  ..Initialization
 46c0 20657272 6f723a0a 25730a00 6578706c   error:.%s..expl
 46d0 6f646564 00646566 75736564 0025643a  oded.defused.%d:
 46e0 25733a25 733a2564 3a257300 0a424f4f  %s:%s:%d:%s..BOO
 46f0 4d212121 00546865 20626f6d 62206861  M!!!.The bomb ha
 4700 7320626c 6f776e20 75702e00 25642025  s blown up..%d %
 4710 64202564 20256420 25642025 64004572  d %d %d %d %d.Er
 4720 726f723a 20507265 6d617475 72652045  ror: Premature E
 4730 4f46206f 6e207374 64696e00 47524144  OF on stdin.GRAD
 4740 455f424f 4d420045 72726f72 3a20496e  E_BOMB.Error: In
 4750 70757420 6c696e65 20746f6f 206c6f6e  put line too lon
 4760 67006963 735f3230 3139006c 6f63616c  g.ics_2019.local
 4770 686f7374 00737072 696e6700 73756d6d  host.spring.summ
 4780 65720061 7574756d 6e007769 6e746572  er.autumn.winter
 4790 00617574 6f6c6162 2e706b75 2e656475  .autolab.pku.edu
 47a0 2e636e00 6e657473 65727665 72006963  .cn.netserver.ic
 47b0 7364616e 63657200 00000000 00000000  sdancer.........
 47c0 11fa2220 222011fa 11fa2200 220011fa  .." " ...."."...
 47d0 00fa2220 222000fa 00fa2200 220000fa  .." " ...."."...
 47e0 50726f67 72616d20 74696d65 64206f75  Program timed ou
 47f0 74206166 74657220 25642073 65636f6e  t after %d secon
 4800 64730a00 00000000 47455420 2f636f75  ds......GET /cou
 4810 72736573 2f25732f 61737365 73736d65  rses/%s/assessme
 4820 6e74732f 25732f6c 6f675f73 75626d69  nts/%s/log_submi
 4830 743f7573 65723d25 73266173 73657373  t?user=%s&assess
 4840 6d656e74 3d267265 73756c74 3d257320  ment=&result=%s 
 4850 48545450 2f312e30 0d0a486f 73743a20  HTTP/1.0..Host: 
 4860 25730d0a 0d0a0000 4572726f 723a2048  %s......Error: H
 4870 54545020 72657175 65737420 6661696c  TTP request fail
 4880 65642077 69746820 6572726f 72202564  ed with error %d
 4890 3a202573 00252525 30325800 25732025  : %s.%%%02X.%s %
 48a0 6420255b 612d7a41 2d7a205d 004f4b0a  d %[a-zA-z ].OK.
 48b0 004f4b0d 0a004f4b 00313932 2e313638  .OK...OK.192.168
 48c0 2e323332 2e313730 000a4155 544f5245  .232.170..AUTORE
 48d0 53554c54 5f535452 494e473d 25730a00  SULT_STRING=%s..
Contents of section .eh_frame_hdr:
 48e0 011b033b 5c010000 2a000000 40c7ffff  ...;\...*...@...
 48f0 90010000 20c9ffff b8010000 30c9ffff  .... .......0...
 4900 d0010000 00cbffff 78010000 e9cbffff  ........x.......
 4910 e8010000 78cdffff 08020000 29ceffff  ....x.......)...
 4920 38020000 cdceffff 54020000 f1ceffff  8.......T.......
 4930 70020000 6ecfffff 94020000 2ad0ffff  p...n.......*...
 4940 b0020000 65d0ffff e4020000 e9d0ffff  ....e...........
 4950 10030000 7cd1ffff 2c030000 8bd2ffff  ....|...,.......
 4960 60030000 e1d2ffff 88030000 2bd3ffff  `...........+...
 4970 b4030000 eed3ffff e0030000 50d4ffff  ............P...
 4980 fc030000 7dd4ffff 18040000 95d4ffff  ....}...........
 4990 2c040000 e6d4ffff 58040000 ffd5ffff  ,.......X.......
 49a0 8c040000 04d6ffff a0040000 43d6ffff  ............C...
 49b0 c8040000 8ed6ffff e4040000 6cd8ffff  ............l...
 49c0 44050000 5ad9ffff 64050000 9fd9ffff  D...Z...d.......
 49d0 88050000 eadaffff a4050000 32dcffff  ............2...
 49e0 d8050000 44dcffff ec050000 7adcffff  ....D.......z...
 49f0 08060000 d8dcffff 44060000 5fddffff  ........D..._...
 4a00 7c060000 00deffff b8060000 10dfffff  |...............
 4a10 ec060000 bfe6ffff 60070000 eee6ffff  ........`.......
 4a20 80070000 fee8ffff b4070000 80e9ffff  ................
 4a30 e0070000 f0e9ffff 28080000           ........(...    
Contents of section .eh_frame:
 4a40 14000000 00000000 017a5200 01781001  .........zR..x..
 4a50 1b0c0708 90010000 14000000 1c000000  ................
 4a60 80c9ffff 2f000000 00440710 00000000  ..../....D......
 4a70 24000000 34000000 a8c5ffff e0010000  $...4...........
 4a80 000e1046 0e184a0f 0b770880 003f1a3a  ...F..J..w...?.:
 4a90 2a332422 00000000 14000000 5c000000  *3$"........\...
 4aa0 60c7ffff 10000000 00000000 00000000  `...............
 4ab0 14000000 74000000 58c7ffff d0010000  ....t...X.......
 4ac0 00000000 00000000 1c000000 8c000000  ................
 4ad0 f9c9ffff 8f010000 00450e10 83020255  .........E.....U
 4ae0 0a0e0841 0b000000 2c000000 ac000000  ...A....,.......
 4af0 68cbffff b1000000 004b0eb0 01610eb8  h........K...a..
 4b00 01460ec0 01460ec8 01460ed0 01660eb0  .F...F...F...f..
 4b10 01640a0e 08410b00 18000000 dc000000  .d...A..........
 4b20 e9cbffff a4000000 004b0ea0 0102590a  .........K....Y.
 4b30 0e08410b 18000000 f8000000 71ccffff  ..A.........q...
 4b40 24000000 00480e10 540a0e08 410b0000  $....H..T...A...
 4b50 20000000 14010000 79ccffff 7d000000   .......y...}...
 4b60 00450e10 8302440e 30026d0a 0e10410e  .E....D.0.m...A.
 4b70 08410b00 18000000 38010000 d2ccffff  .A......8.......
 4b80 bc000000 00480e20 026a0a0e 08410b00  .....H. .j...A..
 4b90 30000000 54010000 72cdffff 3b000000  0...T...r...;...
 4ba0 00490e10 8602410e 18830344 0e20600e  .I....A....D. `.
 4bb0 18410e10 410e0841 c3c6460e 20830386  .A..A..A..F. ...
 4bc0 02000000 28000000 88010000 79cdffff  ....(.......y...
 4bd0 84000000 00450e10 8602410e 18830344  .....E....A....D
 4be0 0e30026b 0a0e1841 0e10410e 08410b00  .0.k...A..A..A..
 4bf0 18000000 b4010000 d1cdffff 93000000  ................
 4c00 00480e20 02850a0e 08410b00 30000000  .H. .....A..0...
 4c10 d0010000 48ceffff 0f010000 00460e10  ....H........F..
 4c20 8c02410e 18860341 0e208304 440e8001  ..A....A. ..D...
 4c30 02f90a0e 20410e18 410e1042 0e08410b  .... A..A..B..A.
 4c40 24000000 04020000 23cfffff 56000000  $.......#...V...
 4c50 00450e10 8602410e 18830344 0e200249  .E....A....D. .I
 4c60 0e18410e 10410e08 28000000 2c020000  ..A..A..(...,...
 4c70 51cfffff 4a000000 00460e10 8c02410e  Q...J....F....A.
 4c80 18860341 0e208304 770a0e18 410e1042  ...A. ..w...A..B
 4c90 0e08410b 28000000 58020000 6fcfffff  ..A.(...X...o...
 4ca0 c3000000 00450e10 8602410e 18830344  .....E....A....D
 4cb0 0e3002aa 0a0e1841 0e10410e 08410b00  .0.....A..A..A..
 4cc0 18000000 84020000 06d0ffff 62000000  ............b...
 4cd0 00450e10 410e0844 0e100000 18000000  .E..A..D........
 4ce0 a0020000 4cd0ffff 2d000000 00450e10  ....L...-....E..
 4cf0 410e0844 0e100000 10000000 bc020000  A..D............
 4d00 5dd0ffff 18000000 00000000 28000000  ]...........(...
 4d10 d0020000 61d0ffff 51000000 00460e10  ....a...Q....F..
 4d20 8c02410e 18860341 0e208304 7e0a0e18  ..A....A. ..~...
 4d30 410e1042 0e08410b 30000000 fc020000  A..B..A.0.......
 4d40 86d0ffff 19010000 00450e10 8602410e  .........E....A.
 4d50 18830347 0e98204c 0e984049 0ef04002  ...G.. L..@I..@.
 4d60 b40a0e18 410e1041 0e08410b 10000000  ....A..A..A.....
 4d70 30030000 6bd1ffff 05000000 00000000  0...k...........
 4d80 24000000 44030000 5cd1ffff 3f000000  $...D...\...?...
 4d90 00450e10 8602410e 18830344 0e20720e  .E....A....D. r.
 4da0 18410e10 410e0800 18000000 6c030000  .A..A.......l...
 4db0 73d1ffff 4b000000 00450e10 83020245  s...K....E.....E
 4dc0 0e080000 5c000000 88030000 a2d1ffff  ....\...........
 4dd0 de010000 00460e10 8d02420e 188c0341  .....F....B....A
 4de0 0e208604 410e2883 05480c0b a8800151  . ..A.(..H.....Q
 4df0 0d07440e 80810102 7a0e8881 01420e90  ..D.....z....B..
 4e00 8101410e 98810141 0ea08101 700e8081  ..A....A....p...
 4e10 0102d30a 0e28410e 20410e18 420e1042  .....(A. A..B..B
 4e20 0e08410b 1c000000 e8030000 20d3ffff  ..A......... ...
 4e30 ee000000 00450e10 8602410e 18830344  .....E....A....D
 4e40 0e800100 20000000 08040000 eed3ffff  .... ...........
 4e50 45000000 00480e10 4c0e1845 0e205d0e  E....H..L..E. ].
 4e60 10490a0e 08410b00 18000000 2c040000  .I...A......,...
 4e70 0fd4ffff 4b010000 00480e10 02800a0e  ....K....H......
 4e80 08410b00 30000000 48040000 3ed5ffff  .A..0...H...>...
 4e90 48010000 00460e10 8c02410e 18860341  H....F....A....A
 4ea0 0e208304 440e7002 b40a0e20 410e1841  . ..D.p.... A..A
 4eb0 0e10420e 08410b00 10000000 7c040000  ..B..A......|...
 4ec0 52d6ffff 12000000 00000000 18000000  R...............
 4ed0 90040000 50d6ffff 36000000 00450e10  ....P...6....E..
 4ee0 410e0844 0e100000 38000000 ac040000  A..D....8.......
 4ef0 6ad6ffff 5e000000 00420e10 8d02420e  j...^....B....B.
 4f00 188c0341 0e208604 410e2883 05440e30  ...A. ..A.(..D.0
 4f10 02440a0e 28410e20 410e1842 0e10420e  .D..(A. A..B..B.
 4f20 08410b00 34000000 e8040000 8cd6ffff  .A..4...........
 4f30 87000000 00420e10 8d02420e 188c0341  .....B....B....A
 4f40 0e208604 410e2883 05440e30 02760e28  . ..A.(..D.0.v.(
 4f50 410e2041 0e18420e 10420e08 38000000  A. A..B..B..8...
 4f60 20050000 dbd6ffff a1000000 00420e10   ............B..
 4f70 8d02420e 188c0341 0e208604 410e2883  ..B....A. ..A.(.
 4f80 05440e40 02820a0e 28410e20 410e1842  .D.@....(A. A..B
 4f90 0e10420e 08410b00 30000000 5c050000  ..B..A..0...\...
 4fa0 40d7ffff 10010000 00420e10 8c02410e  @........B....A.
 4fb0 18860341 0e208304 440e3002 fe0a0e20  ...A. ..D.0.... 
 4fc0 410e1841 0e10420e 08410b00 70000000  A..A..B..A..p...
 4fd0 90050000 1cd8ffff af070000 00460e10  .............F..
 4fe0 8f02420e 188e0342 0e208d04 420e288c  ..B....B. ..B.(.
 4ff0 05410e30 8606410e 38830748 0c0bb8c0  .A.0..A.8..H....
 5000 02510d07 440ea0c1 02036201 0ea8c102  .Q..D.....b.....
 5010 420eb0c1 02490eb8 c102420e c0c10202  B....I....B.....
 5020 440ea0c1 02033d01 0a0e3841 0e30410e  D.....=...8A.0A.
 5030 28420e20 420e1842 0e10420e 08410b00  (B. B..B..B..A..
 5040 1c000000 04060000 57dfffff 2f000000  ........W.../...
 5050 00490e10 83025d0a 0e08410b 470e08c3  .I....]...A.G...
 5060 30000000 24060000 66dfffff 10020000  0...$...f.......
 5070 00460e10 8c02410e 18860341 0e208304  .F....A....A. ..
 5080 440e4002 f30a0e20 410e1841 0e10420e  D.@.... A..A..B.
 5090 08410b00 28000000 58060000 42e1ffff  .A..(...X...B...
 50a0 77000000 00450e10 83025f0a 0e08410b  w....E...._...A.
 50b0 6d0e1842 0e20610e 10000000 00000000  m..B. a.........
 50c0 44000000 84060000 98e1ffff 65000000  D...........e...
 50d0 00460e10 8f02490e 188e0345 0e208d04  .F....I....E. ..
 50e0 450e288c 05440e30 8606480e 38830747  E.(..D.0..H.8..G
 50f0 0e406e0e 38410e30 410e2842 0e20420e  .@n.8A.0A.(B. B.
 5100 18420e10 420e0800 10000000 cc060000  .B..B...........
 5110 c0e1ffff 05000000 00000000 00000000  ................
Contents of section .init_array:
 6cc8 c0140000 00000000                    ........        
Contents of section .fini_array:
 6cd0 80140000 00000000                    ........        
Contents of section .dynamic:
 6cd8 01000000 00000000 01000000 00000000  ................
 6ce8 1d000000 00000000 8e010000 00000000  ................
 6cf8 0c000000 00000000 00100000 00000000  ................
 6d08 0d000000 00000000 d8320000 00000000  .........2......
 6d18 19000000 00000000 c86c0000 00000000  .........l......
 6d28 1b000000 00000000 08000000 00000000  ................
 6d38 1a000000 00000000 d06c0000 00000000  .........l......
 6d48 1c000000 00000000 08000000 00000000  ................
 6d58 f5feff6f 00000000 a0030000 00000000  ...o............
 6d68 05000000 00000000 68070000 00000000  ........h.......
 6d78 06000000 00000000 d8030000 00000000  ................
 6d88 0a000000 00000000 f3010000 00000000  ................
 6d98 0b000000 00000000 18000000 00000000  ................
 6da8 15000000 00000000 00000000 00000000  ................
 6db8 03000000 00000000 d86e0000 00000000  .........n......
 6dc8 02000000 00000000 b8020000 00000000  ................
 6dd8 14000000 00000000 07000000 00000000  ................
 6de8 17000000 00000000 700c0000 00000000  ........p.......
 6df8 07000000 00000000 180a0000 00000000  ................
 6e08 08000000 00000000 58020000 00000000  ........X.......
 6e18 09000000 00000000 18000000 00000000  ................
 6e28 1e000000 00000000 08000000 00000000  ................
 6e38 fbffff6f 00000000 01000008 00000000  ...o............
 6e48 feffff6f 00000000 a8090000 00000000  ...o............
 6e58 ffffff6f 00000000 01000000 00000000  ...o............
 6e68 f0ffff6f 00000000 5c090000 00000000  ...o....\.......
 6e78 f9ffff6f 00000000 11000000 00000000  ...o............
 6e88 00000000 00000000 00000000 00000000  ................
 6e98 00000000 00000000 00000000 00000000  ................
 6ea8 00000000 00000000 00000000 00000000  ................
 6eb8 00000000 00000000 00000000 00000000  ................
 6ec8 00000000 00000000 00000000 00000000  ................
Contents of section .got:
 6ed8 d86c0000 00000000 00000000 00000000  .l..............
 6ee8 00000000 00000000 30100000 00000000  ........0.......
 6ef8 40100000 00000000 50100000 00000000  @.......P.......
 6f08 60100000 00000000 70100000 00000000  `.......p.......
 6f18 80100000 00000000 90100000 00000000  ................
 6f28 a0100000 00000000 b0100000 00000000  ................
 6f38 c0100000 00000000 d0100000 00000000  ................
 6f48 e0100000 00000000 f0100000 00000000  ................
 6f58 00110000 00000000 10110000 00000000  ................
 6f68 20110000 00000000 30110000 00000000   .......0.......
 6f78 40110000 00000000 50110000 00000000  @.......P.......
 6f88 60110000 00000000 70110000 00000000  `.......p.......
 6f98 80110000 00000000 90110000 00000000  ................
 6fa8 a0110000 00000000 b0110000 00000000  ................
 6fb8 c0110000 00000000 d0110000 00000000  ................
 6fc8 e0110000 00000000 f0110000 00000000  ................
 6fd8 00000000 00000000 00000000 00000000  ................
 6fe8 00000000 00000000 00000000 00000000  ................
 6ff8 00000000 00000000                    ........        
Contents of section .data:
 7000 00000000 00000000 08700000 00000000  .........p......
 7010 00000000 00000000 00000000 00000000  ................
 7020 e7010000 06000000 00000000 00000000  ................
 7030 00000000 00000000 00000000 00000000  ................
 7040 626f6d62 6c616200 00000000 00000000  bomblab.........
 7050 00000000 00000000 00000000 00000000  ................
 7060 00000000 00000000 00000000 00000000  ................
 7070 00000000 00000000 00000000 00000000  ................
 7080 00000000 00000000 00000000 00000000  ................
 7090 00000000 00000000 00000000 00000000  ................
 70a0 00000000 00000000 00000000 00000000  ................
 70b0 00000000 00000000 00000000 00000000  ................
 70c0 00000000 00000000 00000000 00000000  ................
 70d0 00000000 00000000 00000000 00000000  ................
 70e0 00000000 00000000 00000000 00000000  ................
 70f0 00000000 00000000 00000000 00000000  ................
 7100 00000000 00000000 00000000 00000000  ................
 7110 00000000 00000000 00000000 00000000  ................
 7120 00000000 00000000 00000000 00000000  ................
 7130 00000000 00000000 00000000 00000000  ................
 7140 00000000 00000000 00000000 00000000  ................
 7150 00000000 00000000 00000000 00000000  ................
 7160 00000000 00000000 00000000 00000000  ................
 7170 00000000 00000000 00000000 00000000  ................
 7180 00000000 00000000 00000000 00000000  ................
 7190 00000000 00000000 00000000 00000000  ................
 71a0 00000000 00000000 00000000 00000000  ................
 71b0 00000000 00000000 00000000 00000000  ................
 71c0 00000000 00000000 00000000 00000000  ................
 71d0 00000000 00000000 00000000 00000000  ................
 71e0 00000000 00000000 00000000 00000000  ................
 71f0 00000000 00000000 00000000 00000000  ................
 7200 00000000 00000000 00000000 00000000  ................
 7210 00000000 00000000 00000000 00000000  ................
 7220 00000000 00000000 00000000 00000000  ................
 7230 00000000 00000000 00000000 00000000  ................
 7240 00000000 00000000 00000000 00000000  ................
 7250 00000000 00000000 00000000 00000000  ................
 7260 00000000 00000000 00000000 00000000  ................
 7270 00000000 00000000 00000000 00000000  ................
 7280 00000000 00000000 00000000 00000000  ................
 7290 00000000 00000000 00000000 00000000  ................
 72a0 00000000 00000000 00000000 00000000  ................
 72b0 00000000 00000000 00000000 00000000  ................
 72c0 00000000 00000000 00000000 00000000  ................
 72d0 00000000 00000000 00000000 00000000  ................
 72e0 00000000 00000000 00000000 00000000  ................
 72f0 00000000 00000000 00000000 00000000  ................
 7300 00000000 00000000 00000000 00000000  ................
 7310 00000000 00000000 00000000 00000000  ................
 7320 00000000 00000000 00000000 00000000  ................
 7330 00000000 00000000 00000000 00000000  ................
 7340 00000000 00000000 00000000 00000000  ................
 7350 00000000 00000000 00000000 00000000  ................
 7360 00000000 00000000 00000000 00000000  ................
 7370 00000000 00000000 00000000 00000000  ................
 7380 00000000 00000000 00000000 00000000  ................
 7390 00000000 00000000 00000000 00000000  ................
 73a0 00000000 00000000 00000000 00000000  ................
 73b0 00000000 00000000 00000000 00000000  ................
 73c0 00000000 00000000 00000000 00000000  ................
 73d0 00000000 00000000 00000000 00000000  ................
 73e0 00000000 00000000 00000000 00000000  ................
 73f0 00000000 00000000 00000000 00000000  ................
 7400 00000000 00000000 00000000 00000000  ................
 7410 00000000 00000000 00000000 00000000  ................
 7420 00000000 00000000 00000000 00000000  ................
 7430 00000000 00000000 00000000 00000000  ................
 7440 49435332 30323200 00000000 00000000  ICS2022.........
 7450 00000000 00000000 00000000 00000000  ................
 7460 00000000 00000000 00000000 00000000  ................
 7470 00000000 00000000 00000000 00000000  ................
 7480 00000000 00000000 00000000 00000000  ................
 7490 00000000 00000000 00000000 00000000  ................
 74a0 00000000 00000000 00000000 00000000  ................
 74b0 00000000 00000000 00000000 00000000  ................
 74c0 00000000 00000000 00000000 00000000  ................
 74d0 00000000 00000000 00000000 00000000  ................
 74e0 00000000 00000000 00000000 00000000  ................
 74f0 00000000 00000000 00000000 00000000  ................
 7500 00000000 00000000 00000000 00000000  ................
 7510 00000000 00000000 00000000 00000000  ................
 7520 00000000 00000000 00000000 00000000  ................
 7530 00000000 00000000 00000000 00000000  ................
 7540 00000000 00000000 00000000 00000000  ................
 7550 00000000 00000000 00000000 00000000  ................
 7560 00000000 00000000 00000000 00000000  ................
 7570 00000000 00000000 00000000 00000000  ................
 7580 00000000 00000000 00000000 00000000  ................
 7590 00000000 00000000 00000000 00000000  ................
 75a0 00000000 00000000 00000000 00000000  ................
 75b0 00000000 00000000 00000000 00000000  ................
 75c0 00000000 00000000 00000000 00000000  ................
 75d0 00000000 00000000 00000000 00000000  ................
 75e0 00000000 00000000 00000000 00000000  ................
 75f0 00000000 00000000 00000000 00000000  ................
 7600 00000000 00000000 00000000 00000000  ................
 7610 00000000 00000000 00000000 00000000  ................
 7620 00000000 00000000 00000000 00000000  ................
 7630 00000000 00000000 00000000 00000000  ................
 7640 00000000 00000000 00000000 00000000  ................
 7650 00000000 00000000 00000000 00000000  ................
 7660 00000000 00000000 00000000 00000000  ................
 7670 00000000 00000000 00000000 00000000  ................
 7680 00000000 00000000 00000000 00000000  ................
 7690 00000000 00000000 00000000 00000000  ................
 76a0 00000000 00000000 00000000 00000000  ................
 76b0 00000000 00000000 00000000 00000000  ................
 76c0 00000000 00000000 00000000 00000000  ................
 76d0 00000000 00000000 00000000 00000000  ................
 76e0 00000000 00000000 00000000 00000000  ................
 76f0 00000000 00000000 00000000 00000000  ................
 7700 00000000 00000000 00000000 00000000  ................
 7710 00000000 00000000 00000000 00000000  ................
 7720 00000000 00000000 00000000 00000000  ................
 7730 00000000 00000000 00000000 00000000  ................
 7740 00000000 00000000 00000000 00000000  ................
 7750 00000000 00000000 00000000 00000000  ................
 7760 00000000 00000000 00000000 00000000  ................
 7770 00000000 00000000 00000000 00000000  ................
 7780 00000000 00000000 00000000 00000000  ................
 7790 00000000 00000000 00000000 00000000  ................
 77a0 00000000 00000000 00000000 00000000  ................
 77b0 00000000 00000000 00000000 00000000  ................
 77c0 00000000 00000000 00000000 00000000  ................
 77d0 00000000 00000000 00000000 00000000  ................
 77e0 00000000 00000000 00000000 00000000  ................
 77f0 00000000 00000000 00000000 00000000  ................
 7800 00000000 00000000 00000000 00000000  ................
 7810 00000000 00000000 00000000 00000000  ................
 7820 00000000 00000000 00000000 00000000  ................
 7830 00000000 00000000 00000000 00000000  ................
 7840 31313331 36363500 00000000 00000000  1131665.........
 7850 00000000 00000000 00000000 00000000  ................
 7860 00000000 00000000 00000000 00000000  ................
 7870 00000000 00000000 00000000 00000000  ................
 7880 00000000 00000000 00000000 00000000  ................
 7890 00000000 00000000 00000000 00000000  ................
 78a0 00000000 00000000 00000000 00000000  ................
 78b0 00000000 00000000 00000000 00000000  ................
 78c0 00000000 00000000 00000000 00000000  ................
 78d0 00000000 00000000 00000000 00000000  ................
 78e0 00000000 00000000 00000000 00000000  ................
 78f0 00000000 00000000 00000000 00000000  ................
 7900 00000000 00000000 00000000 00000000  ................
 7910 00000000 00000000 00000000 00000000  ................
 7920 00000000 00000000 00000000 00000000  ................
 7930 00000000 00000000 00000000 00000000  ................
 7940 00000000 00000000 00000000 00000000  ................
 7950 00000000 00000000 00000000 00000000  ................
 7960 00000000 00000000 00000000 00000000  ................
 7970 00000000 00000000 00000000 00000000  ................
 7980 00000000 00000000 00000000 00000000  ................
 7990 00000000 00000000 00000000 00000000  ................
 79a0 00000000 00000000 00000000 00000000  ................
 79b0 00000000 00000000 00000000 00000000  ................
 79c0 00000000 00000000 00000000 00000000  ................
 79d0 00000000 00000000 00000000 00000000  ................
 79e0 00000000 00000000 00000000 00000000  ................
 79f0 00000000 00000000 00000000 00000000  ................
 7a00 00000000 00000000 00000000 00000000  ................
 7a10 00000000 00000000 00000000 00000000  ................
 7a20 00000000 00000000 00000000 00000000  ................
 7a30 00000000 00000000 00000000 00000000  ................
 7a40 00000000 00000000 00000000 00000000  ................
 7a50 00000000 00000000 00000000 00000000  ................
 7a60 00000000 00000000 00000000 00000000  ................
 7a70 00000000 00000000 00000000 00000000  ................
 7a80 00000000 00000000 00000000 00000000  ................
 7a90 00000000 00000000 00000000 00000000  ................
 7aa0 00000000 00000000 00000000 00000000  ................
 7ab0 00000000 00000000 00000000 00000000  ................
 7ac0 00000000 00000000 00000000 00000000  ................
 7ad0 00000000 00000000 00000000 00000000  ................
 7ae0 00000000 00000000 00000000 00000000  ................
 7af0 00000000 00000000 00000000 00000000  ................
 7b00 00000000 00000000 00000000 00000000  ................
 7b10 00000000 00000000 00000000 00000000  ................
 7b20 00000000 00000000 00000000 00000000  ................
 7b30 00000000 00000000 00000000 00000000  ................
 7b40 00000000 00000000 00000000 00000000  ................
 7b50 00000000 00000000 00000000 00000000  ................
 7b60 00000000 00000000 00000000 00000000  ................
 7b70 00000000 00000000 00000000 00000000  ................
 7b80 00000000 00000000 00000000 00000000  ................
 7b90 00000000 00000000 00000000 00000000  ................
 7ba0 00000000 00000000 00000000 00000000  ................
 7bb0 00000000 00000000 00000000 00000000  ................
 7bc0 00000000 00000000 00000000 00000000  ................
 7bd0 00000000 00000000 00000000 00000000  ................
 7be0 00000000 00000000 00000000 00000000  ................
 7bf0 00000000 00000000 00000000 00000000  ................
 7c00 00000000 00000000 00000000 00000000  ................
 7c10 00000000 00000000 00000000 00000000  ................
 7c20 00000000 00000000 00000000 00000000  ................
 7c30 00000000 00000000 00000000 00000000  ................
 7c40 32313030 30313331 33314073 74752e70  2100013131@stu.p
 7c50 6b752e65 64752e63 6e000000 00000000  ku.edu.cn.......
 7c60 00000000 00000000 00000000 00000000  ................
 7c70 00000000 00000000 00000000 00000000  ................
 7c80 00000000 00000000 00000000 00000000  ................
 7c90 00000000 00000000 00000000 00000000  ................
 7ca0 00000000 00000000 00000000 00000000  ................
 7cb0 00000000 00000000 00000000 00000000  ................
 7cc0 00000000 00000000 00000000 00000000  ................
 7cd0 00000000 00000000 00000000 00000000  ................
 7ce0 00000000 00000000 00000000 00000000  ................
 7cf0 00000000 00000000 00000000 00000000  ................
 7d00 00000000 00000000 00000000 00000000  ................
 7d10 00000000 00000000 00000000 00000000  ................
 7d20 00000000 00000000 00000000 00000000  ................
 7d30 00000000 00000000 00000000 00000000  ................
 7d40 00000000 00000000 00000000 00000000  ................
 7d50 00000000 00000000 00000000 00000000  ................
 7d60 00000000 00000000 00000000 00000000  ................
 7d70 00000000 00000000 00000000 00000000  ................
 7d80 00000000 00000000 00000000 00000000  ................
 7d90 00000000 00000000 00000000 00000000  ................
 7da0 00000000 00000000 00000000 00000000  ................
 7db0 00000000 00000000 00000000 00000000  ................
 7dc0 00000000 00000000 00000000 00000000  ................
 7dd0 00000000 00000000 00000000 00000000  ................
 7de0 00000000 00000000 00000000 00000000  ................
 7df0 00000000 00000000 00000000 00000000  ................
 7e00 00000000 00000000 00000000 00000000  ................
 7e10 00000000 00000000 00000000 00000000  ................
 7e20 00000000 00000000 00000000 00000000  ................
 7e30 00000000 00000000 00000000 00000000  ................
 7e40 00000000 00000000 00000000 00000000  ................
 7e50 00000000 00000000 00000000 00000000  ................
 7e60 00000000 00000000 00000000 00000000  ................
 7e70 00000000 00000000 00000000 00000000  ................
 7e80 00000000 00000000 00000000 00000000  ................
 7e90 00000000 00000000 00000000 00000000  ................
 7ea0 00000000 00000000 00000000 00000000  ................
 7eb0 00000000 00000000 00000000 00000000  ................
 7ec0 00000000 00000000 00000000 00000000  ................
 7ed0 00000000 00000000 00000000 00000000  ................
 7ee0 00000000 00000000 00000000 00000000  ................
 7ef0 00000000 00000000 00000000 00000000  ................
 7f00 00000000 00000000 00000000 00000000  ................
 7f10 00000000 00000000 00000000 00000000  ................
 7f20 00000000 00000000 00000000 00000000  ................
 7f30 00000000 00000000 00000000 00000000  ................
 7f40 00000000 00000000 00000000 00000000  ................
 7f50 00000000 00000000 00000000 00000000  ................
 7f60 00000000 00000000 00000000 00000000  ................
 7f70 00000000 00000000 00000000 00000000  ................
 7f80 00000000 00000000 00000000 00000000  ................
 7f90 00000000 00000000 00000000 00000000  ................
 7fa0 00000000 00000000 00000000 00000000  ................
 7fb0 00000000 00000000 00000000 00000000  ................
 7fc0 00000000 00000000 00000000 00000000  ................
 7fd0 00000000 00000000 00000000 00000000  ................
 7fe0 00000000 00000000 00000000 00000000  ................
 7ff0 00000000 00000000 00000000 00000000  ................
 8000 00000000 00000000 00000000 00000000  ................
 8010 00000000 00000000 00000000 00000000  ................
 8020 00000000 00000000 00000000 00000000  ................
 8030 00000000 00000000 00000000 00000000  ................
 8040 0d000000 00000000 00000000 00000000  ................
 8050 ab030000 01000000 60800000 00000000  ........`.......
 8060 f9000000 02000000 70800000 00000000  ........p.......
 8070 98000000 03000000 80800000 00000000  ................
 8080 0a030000 04000000 90800000 00000000  ................
 8090 e5020000 05000000 20700000 00000000  ........ p......
 80a0 62470000 00000000 6b470000 00000000  bG......kG......
 80b0 75470000 00000000 7c470000 00000000  uG......|G......
 80c0 83470000 00000000 8a470000 00000000  .G.......G......
 80d0 91470000 00000000 a4470000 00000000  .G.......G......
 80e0 ae470000 00000000 00000000 00000000  .G..............
 80f0 00000000 00000000 00000000 00000000  ................
 8100 00000000 00000000 00000000 00000000  ................
 8110 00000000 00000000 00000000 00000000  ................
 8120 00000000 00000000 00000000 00000000  ................
 8130 00000000 00000000 00000000 00000000  ................
 8140 00000000 00000000 00000000 00000000  ................
 8150 00000000 00000000 00000000 00000000  ................
 8160 00000000 00000000 00000000 00000000  ................
 8170 00000000 00000000 00000000 00000000  ................
 8180 00000000 00000000 00000000 00000000  ................
 8190 00000000 00000000 00000000 00000000  ................
 81a0 00000000 00000000 00000000 00000000  ................
 81b0 00000000 00000000 00000000 00000000  ................
 81c0 00000000 00000000 00000000 00000000  ................
 81d0 00000000 00000000 00000000 00000000  ................
 81e0 00000000 00000000 00000000 00000000  ................
 81f0 00000000 00000000 00000000 00000000  ................
 8200 00000000 00000000 00000000 00000000  ................
 8210 00000000 00000000 00000000 00000000  ................
 8220 00000000 00000000 00000000 00000000  ................
 8230 00000000 00000000 00000000 00000000  ................
 8240 00000000 00000000 00000000 00000000  ................
 8250 00000000 00000000 00000000 00000000  ................
 8260 00000000 00000000 00000000 00000000  ................
 8270 00000000 00000000 00000000 00000000  ................
 8280 00000000 00000000 00000000 00000000  ................
 8290 00000000 00000000 00000000 00000000  ................
 82a0 00000000 00000000 00000000 00000000  ................
 82b0 00000000 00000000 00000000 00000000  ................
 82c0 00000000 00000000 00000000 00000000  ................
 82d0 00000000 00000000 00000000 00000000  ................
 82e0 00000000 00000000 00000000 00000000  ................
 82f0 00000000 00000000 00000000 00000000  ................
 8300 00000000 00000000 00000000 00000000  ................
 8310 00000000 00000000 00000000 00000000  ................
 8320 00000000 00000000 00000000 00000000  ................
 8330 00000000 00000000 00000000 00000000  ................
 8340 00000000 00000000 00000000 00000000  ................
 8350 00000000 00000000 00000000 00000000  ................
 8360 00000000 00000000 00000000 00000000  ................
 8370 00000000 00000000 00000000 00000000  ................
 8380 00000000 00000000 00000000 00000000  ................
 8390 00000000 00000000 00000000 00000000  ................
 83a0 00000000 00000000 00000000 00000000  ................
 83b0 00000000 00000000 00000000 00000000  ................
 83c0 00000000 00000000 00000000 00000000  ................
 83d0 00000000 00000000 00000000 00000000  ................
 83e0 00000000 00000000 00000000 00000000  ................
 83f0 00000000 00000000 00000000 00000000  ................
 8400 00000000 00000000 00000000 00000000  ................
 8410 00000000 00000000 00000000 00000000  ................
 8420 00000000 00000000 00000000 00000000  ................
 8430 00000000 00000000 00000000 00000000  ................
 8440 00000000 00000000 00000000 00000000  ................
 8450 00000000 00000000 00000000 00000000  ................
Contents of section .comment:
 0000 4743433a 20285562 756e7475 20392e33  GCC: (Ubuntu 9.3
 0010 2e302d31 37756275 6e747531 7e32302e  .0-17ubuntu1~20.
 0020 30342920 392e332e 3000               04) 9.3.0.      
Contents of section .debug_aranges:
 0000 2c000000 02000000 00000800 00000000  ,...............
 0010 c9140000 00000000 8f010000 00000000  ................
 0020 00000000 00000000 00000000 00000000  ................
Contents of section .debug_info:
 0000 8b0a0000 04000000 00000801 cc010000  ................
 0010 0c8c0200 00990200 00c91400 00000000  ................
 0020 008f0100 00000000 00000000 00022300  ..............#.
 0030 000003d1 17390000 00030807 46000000  .....9......F...
 0040 0304074b 00000004 08030108 be010000  ...K............
 0050 03020736 01000003 0106c001 00000302  ...6............
 0060 05600200 00050405 696e7400 0308056c  .`......int....l
 0070 00000002 07000000 0498196c 00000002  ...........l....
 0080 c6020000 04991b6c 00000006 08910000  .......l........
 0090 00030106 c7010000 07910000 00089a01  ................
 00a0 0000d805 31082402 00000998 00000005  ....1.$.........
 00b0 33076500 00000009 0f000000 0536098b  3.e..........6..
 00c0 00000008 098b0000 00053709 8b000000  ..........7.....
 00d0 1009d002 00000538 098b0000 00180973  .......8.......s
 00e0 03000005 39098b00 00002009 1f010000  ....9..... .....
 00f0 053a098b 00000028 09810100 00053b09  .:.....(......;.
 0100 8b000000 30093400 0000053c 098b0000  ....0.4....<....
 0110 0038099f 00000005 3d098b00 00004009  .8......=.....@.
 0120 49010000 0540098b 00000048 094b0300  I....@.....H.K..
 0130 00054109 8b000000 5009ec02 00000542  ..A.....P......B
 0140 098b0000 005809b5 01000005 44163d02  .....X......D.=.
 0150 00006009 1c000000 05461443 02000068  ..`......F.C...h
 0160 09830000 00054807 65000000 70095d01  ......H.e...p.].
 0170 00000549 07650000 007409d0 00000005  ...I.e...t......
 0180 4a0b7300 00007809 ab000000 054d1250  J.s...x......M.P
 0190 00000080 09780200 00054e0f 57000000  .....x....N.W...
 01a0 82092a00 0000054f 08490200 00830957  ..*....O.I.....W
 01b0 01000005 510f5902 00008809 d4000000  ....Q.Y.........
 01c0 05590d7f 00000090 09ba0000 00055b17  .Y............[.
 01d0 64020000 98096d02 0000055c 196f0200  d.....m....\.o..
 01e0 00a00960 03000005 5d144302 0000a809  ...`....].C.....
 01f0 12010000 055e0947 000000b0 09ff0200  .....^.G........
 0200 00055f0a 2d000000 b8096501 00000560  .._.-.....e....`
 0210 07650000 00c00906 03000005 62087502  .e..........b.u.
 0220 0000c400 029e0100 00060719 9d000000  ................
 0230 0a8f0100 00052b0e 0b010100 00060838  ......+........8
 0240 02000006 089d0000 000c9100 00005902  ..............Y.
 0250 00000d39 00000000 00060830 0200000b  ...9.......0....
 0260 b7000000 06085f02 00000b6a 02000006  ......_....j....
 0270 086a0200 000c9100 00008502 00000d39  .j.............9
 0280 00000013 000e0c01 00000789 0e910200  ................
 0290 00060824 0200000e 7a010000 078a0e91  ...$....z.......
 02a0 0200000e 0f030000 078b0e91 0200000e  ................
 02b0 2d010000 081a0c65 0000000c d1020000  -......e........
 02c0 c6020000 0f0007bb 02000006 08980000  ................
 02d0 0007cb02 000010cb 0200000e a9010000  ................
 02e0 081b1ac6 02000003 08056700 00000308  ..........g.....
 02f0 07410000 000c6500 00000503 00000d39  .A....e........9
 0300 00000007 0011de02 0000091c 0cf50200  ................
 0310 002011fa 22202220 11fa11fa 22002200  . .." " ....".".
 0320 11fa00fa 22202220 00fa00fa 22002200  ...." " ....".".
 0330 00fa0c91 00000043 0300000f 0d390000  .......C.....9..
 0340 0077000e f3000000 09250d32 03000012  .w.......%.2....
 0350 dc000000 01220791 02000009 03908400  ....."..........
 0360 00000000 00136e03 00000124 05650000  ......n....$.e..
 0370 00c91400 00000000 008f0100 00000000  ................
 0380 00019c8c 08000014 5b030000 01240e65  ........[....$.e
 0390 0000000c 00000000 00000014 16030000  ................
 03a0 01241a8c 080000a3 00000097 00000015  .$..............
 03b0 93020000 01260b8b 00000037 0100002b  .....&.....7...+
 03c0 01000016 66700001 430a9208 0000c301  ....fp..C.......
 03d0 0000b901 00001798 08000007 15000000  ................
 03e0 00000001 07150000 00000000 16000000  ................
 03f0 00000000 01460729 04000018 a9080000  .....F.)........
 0400 35020000 33020000 191d1500 00000000  5...3...........
 0410 00b70800 001a0155 01311a01 54090388  .......U.1..T...
 0420 40000000 00000000 00179808 00003b15  @.............;.
 0430 00000000 0000003b 15000000 00000011  .......;........
 0440 00000000 00000001 37047c04 000018a9  ........7.|.....
 0450 08000063 02000061 02000019 4c150000  ...c...a....L...
 0460 00000000 b7080000 1a015501 311a0154  ..........U.1..T
 0470 09030440 00000000 00000000 17980800  ...@............
 0480 00591500 00000000 00005915 00000000  .Y........Y.....
 0490 00001600 00000000 0000013e 03cf0400  ...........>....
 04a0 0018a908 00009102 00008f02 0000196f  ...............o
 04b0 15000000 000000b7 0800001a 01550131  .............U.1
 04c0 1a015409 03214000 00000000 00000017  ..T..!@.........
 04d0 98080000 79150000 00000000 01791500  ....y........y..
 04e0 00000000 000c0000 00000000 00014a05  ..............J.
 04f0 1d050000 18a90800 00bf0200 00bd0200  ................
 0500 00198515 00000000 00000209 00001a01  ................
 0510 550903c8 40000000 00000000 00179808  U...@...........
 0520 00008515 00000000 00000285 15000000  ................
 0530 0000000c 00000000 00000001 4b056b05  ............K.k.
 0540 000018a9 080000e9 020000e7 02000019  ................
 0550 91150000 00000000 02090000 1a015509  ..............U.
 0560 03084100 00000000 00000017 98080000  ..A.............
 0570 a6150000 00000000 01a61500 00000000  ................
 0580 000c0000 00000000 00015205 b9050000  ..........R.....
 0590 18a90800 00130300 00110300 0019b215  ................
 05a0 00000000 00000209 00001a01 55090348  ............U..H
 05b0 41000000 00000000 00179808 0000c715  A...............
 05c0 00000000 000001c7 15000000 0000000c  ................
 05d0 00000000 00000001 59050706 000018a9  ........Y.......
 05e0 0800003d 0300003b 03000019 d3150000  ...=...;........
 05f0 00000000 02090000 1a015509 033b4000  ..........U..;@.
 0600 00000000 00000017 98080000 e8150000  ................
 0610 00000000 01e81500 00000000 000c0000  ................
 0620 00000000 00016005 55060000 18a90800  ......`.U.......
 0630 00670300 00650300 0019f415 00000000  .g...e..........
 0640 00000209 00001a01 55090358 40000000  ........U..X@...
 0650 00000000 00179808 00000916 00000000  ................
 0660 00000109 16000000 0000000c 00000000  ................
 0670 00000001 6605a306 000018a9 08000091  ....f...........
 0680 0300008f 03000019 15160000 00000000  ................
 0690 02090000 1a015509 03784100 00000000  ......U..xA.....
 06a0 00000017 98080000 2a160000 00000000  ........*.......
 06b0 012a1600 00000000 000c0000 00000000  .*..............
 06c0 00016c05 f1060000 18a90800 00bb0300  ..l.............
 06d0 00b90300 00193616 00000000 00000209  ......6.........
 06e0 00001a01 55090367 40000000 00000000  ....U..g@.......
 06f0 001beb14 00000000 0000fc09 00001007  ................
 0700 00001a01 540903b6 47000000 00000000  ....T...G.......
 0710 1cfc1400 00000000 00080a00 001b5615  ..............V.
 0720 00000000 0000140a 00003407 00001a01  ..........4.....
 0730 55013800 1b791500 00000000 00140a00  U.8..y..........
 0740 004b0700 001a0155 0138001c 96150000  .K.....U.8......
 0750 00000000 210a0000 1c9e1500 00000000  ....!...........
 0760 002d0a00 001ba615 00000000 0000390a  .-............9.
 0770 00007d07 00001a01 55027300 001cb715  ..}.....U.s.....
 0780 00000000 0000210a 00001cbf 15000000  ......!.........
 0790 00000045 0a00001b c7150000 00000000  ...E............
 07a0 390a0000 af070000 1a015502 7300001c  9.........U.s...
 07b0 d8150000 00000000 210a0000 1ce01500  ........!.......
 07c0 00000000 00510a00 001be815 00000000  .....Q..........
 07d0 0000390a 0000e107 00001a01 55027300  ..9.........U.s.
 07e0 001cf915 00000000 0000210a 00001c01  ..........!.....
 07f0 16000000 0000005d 0a00001b 09160000  .......]........
 0800 00000000 390a0000 13080000 1a015502  ....9.........U.
 0810 7300001c 1a160000 00000000 210a0000  s...........!...
 0820 1c221600 00000000 00690a00 001b2a16  .".......i....*.
 0830 00000000 0000390a 00004508 00001a01  ......9...E.....
 0840 55027300 001c3b16 00000000 0000210a  U.s...;.......!.
 0850 00001c43 16000000 00000075 0a00001b  ...C.......u....
 0860 4b160000 00000000 390a0000 77080000  K.......9...w...
 0870 1a015502 73000019 53160000 00000000  ..U.s...S.......
 0880 810a0000 1a015502 73000000 06088b00  ......U.s.......
 0890 00000608 65000000 1d000000 00026901  ....e.........i.
 08a0 65000000 03b70800 001ef902 00000269  e..............i
 08b0 20d60200 001f0020 c3000000 c3000000   ...... ........
 08c0 025a0c21 3d9e3b57 656c636f 6d652074  .Z.!=.;Welcome t
 08d0 6f204472 2e204576 696c2773 206c6974  o Dr. Evil's lit
 08e0 746c6520 626f6d62 2e20596f 75206861  tle bomb. You ha
 08f0 76652036 20706861 73657320 77697468  ve 6 phases with
 0900 0a002275 0100006b 0100000c 00213d9e  .."u...k.....!=.
 0910 3b776869 63682074 6f20626c 6f772079  ;which to blow y
 0920 6f757273 656c6620 75702e20 48617665  ourself up. Have
 0930 2061206e 69636520 64617921 204d7561   a nice day! Mua
 0940 20686120 68612068 61210a00 212c9e2a   ha ha ha!..!,.*
 0950 50686173 65203120 64656675 7365642e  Phase 1 defused.
 0960 20486f77 2061626f 75742074 6865206e   How about the n
 0970 65787420 6f6e653f 0a002120 9e1e5468  ext one?..! ..Th
 0980 61742773 206e756d 62657220 322e204b  at's number 2. K
 0990 65657020 676f696e 67210a00 21129e10  eep going!..!...
 09a0 48616c66 77617920 74686572 65210a00  Halfway there!..
 09b0 21279e25 536f2079 6f752067 6f742074  !'.%So you got t
 09c0 68617420 6f6e652e 20205472 79207468  hat one.  Try th
 09d0 6973206f 6e652e0a 0021219e 1f476f6f  is one...!!..Goo
 09e0 6420776f 726b2120 204f6e20 746f2074  d work!  On to t
 09f0 6865206e 6578742e 2e2e0a00 20a30100  he next..... ...
 0a00 00a30100 0007f60e 20e30000 00e30000  ........ .......
 0a10 00090906 23870200 00870200 000a6902  ....#.........i.
 0a20 0d205800 00005800 00000908 07201b03  . X...X...... ..
 0a30 00001b03 00000b04 0d207500 00007500  ......... u...u.
 0a40 0000090c 06202303 00002303 00000b05  ..... #...#.....
 0a50 0d202b03 00002b03 00000b06 0d203303  . +...+...... 3.
 0a60 00003303 00000b07 0d203b03 00003b03  ..3...... ;...;.
 0a70 00000b08 0d204303 00004303 00000b09  ..... C...C.....
 0a80 0d236200 00006200 00000a35 020d00    .#b...b....5... 
Contents of section .debug_abbrev:
 0000 01110125 0e130b03 0e1b0e11 01120710  ...%............
 0010 17000002 1600030e 3a0b3b0b 390b4913  ........:.;.9.I.
 0020 00000324 000b0b3e 0b030e00 00040f00  ...$...>........
 0030 0b0b0000 0524000b 0b3e0b03 08000006  .....$...>......
 0040 0f000b0b 49130000 07260049 13000008  ....I....&.I....
 0050 1301030e 0b0b3a0b 3b0b390b 01130000  ......:.;.9.....
 0060 090d0003 0e3a0b3b 0b390b49 13380b00  .....:.;.9.I.8..
 0070 000a1600 030e3a0b 3b0b390b 00000b13  ......:.;.9.....
 0080 00030e3c 1900000c 01014913 01130000  ...<......I.....
 0090 0d210049 132f0b00 000e3400 030e3a0b  .!.I./....4...:.
 00a0 3b0b390b 49133f19 3c190000 0f210000  ;.9.I.?.<....!..
 00b0 00103700 49130000 11340003 0e3a0b3b  ..7.I....4...:.;
 00c0 0b390b49 131c0a00 00123400 030e3a0b  .9.I......4...:.
 00d0 3b0b390b 49133f19 02180000 132e013f  ;.9.I.?........?
 00e0 19030e3a 0b3b0b39 0b271949 13110112  ...:.;.9.'.I....
 00f0 07401897 42190113 00001405 00030e3a  .@..B..........:
 0100 0b3b0b39 0b491302 17b74217 00001534  .;.9.I....B....4
 0110 00030e3a 0b3b0b39 0b491302 17b74217  ...:.;.9.I....B.
 0120 00001634 0003083a 0b3b0b39 0b491302  ...4...:.;.9.I..
 0130 17b74217 0000171d 01311352 01b8420b  ..B......1.R..B.
 0140 11011207 580b590b 570b0113 00001805  ....X.Y.W.......
 0150 00311302 17b74217 00001989 82010111  .1....B.........
 0160 01311300 001a8a82 01000218 91421800  .1...........B..
 0170 001b8982 01011101 31130113 00001c89  ........1.......
 0180 82010011 01311300 001d2e01 3f19030e  .....1......?...
 0190 3a0b3b0b 390b2719 4913200b 34190113  :.;.9.'.I. .4...
 01a0 00001e05 00030e3a 0b3b0b39 0b491300  .......:.;.9.I..
 01b0 001f1800 0000202e 003f193c 196e0e03  ...... ..?.<.n..
 01c0 0e3a0b3b 0b390b00 00213600 02180000  .:.;.9...!6.....
 01d0 222e003f 193c196e 0e030e3a 0b3b0b00  "..?.<.n...:.;..
 01e0 00232e00 3f193c19 6e0e030e 3a0b3b05  .#..?.<.n...:.;.
 01f0 390b0000 00                          9....           
Contents of section .debug_line:
 0000 c2020000 03002b01 00000101 fb0e0d00  ......+.........
 0010 01010101 00000001 0000012f 7573722f  .........../usr/
 0020 696e636c 7564652f 7838365f 36342d6c  include/x86_64-l
 0030 696e7578 2d676e75 2f626974 73002f75  inux-gnu/bits./u
 0040 73722f6c 69622f67 63632f78 38365f36  sr/lib/gcc/x86_6
 0050 342d6c69 6e75782d 676e752f 392f696e  4-linux-gnu/9/in
 0060 636c7564 65002f75 73722f69 6e636c75  clude./usr/inclu
 0070 64652f78 38365f36 342d6c69 6e75782d  de/x86_64-linux-
 0080 676e752f 62697473 2f747970 6573002f  gnu/bits/types./
 0090 7573722f 696e636c 75646500 00626f6d  usr/include..bom
 00a0 622e6300 00000073 7464696f 322e6800  b.c....stdio2.h.
 00b0 01000073 74646465 662e6800 02000074  ...stddef.h....t
 00c0 79706573 2e680001 00007374 72756374  ypes.h....struct
 00d0 5f46494c 452e6800 03000046 494c452e  _FILE.h....FILE.
 00e0 68000300 00737464 696f2e68 00040000  h....stdio.h....
 00f0 7379735f 6572726c 6973742e 68000100  sys_errlist.h...
 0100 00737570 706f7274 2e680000 00007374  .support.h....st
 0110 646c6962 2e680004 00007068 61736573  dlib.h....phases
 0120 2e680000 00003c62 75696c74 2d696e3e  .h....<built-in>
 0130 00000000 00050100 0902c914 00000000  ................
 0140 00000324 01060105 05065919 05080601  ...$......Y.....
 0150 050a068a 050d0601 05030659 05120601  ...........Y....
 0160 4a740510 58050674 05050603 0d58050f  Jt..X..t.....X..
 0170 06010505 06840508 06010507 06830402  ................
 0180 05010323 01050314 050a0601 08125804  ...#..........X.
 0190 01050706 035c0105 01060334 01050306  .....\.....4....
 01a0 03b37f74 050a0601 05040603 09f20402  ...t............
 01b0 05010332 74050314 050a0601 08120401  ...2t...........
 01c0 05040603 4d010503 a4040205 01032b3c  ....M.........+<
 01d0 05031405 0a0601ba 9e040105 03060354  ...............T
 01e0 01050503 0b9e0402 0501031f 01050314  ................
 01f0 050a0601 ba040105 05060360 01040205  ...........`....
 0200 01031e01 05031405 0a0601ba 04010505  ................
 0210 06036301 050d0601 05050683 59840402  ..c.........Y...
 0220 05010317 01050314 050a0601 ba040105  ................
 0230 0506036b 01050d06 01050506 83598304  ...k.........Y..
 0240 02050103 10010503 14050a06 01ba0401  ................
 0250 05050603 7201050d 06010505 06835983  ....r.........Y.
 0260 04020501 03090105 0314050a 0601ba04  ................
 0270 01050506 03780105 0d060105 05068359  .....x.........Y
 0280 83040205 01150503 14050a06 01ba0401  ................
 0290 05050610 050d0601 05050683 59830402  ............Y...
 02a0 05010f05 0314050a 0601ba04 01050506  ................
 02b0 17050d06 01050506 83598783 14050c06  .........Y......
 02c0 01020500 0101                        ......          
Contents of section .debug_str:
 0000 7072696e 7466005f 5f6f6666 5f74005f  printf.__off_t._
 0010 494f5f72 6561645f 70747200 5f636861  IO_read_ptr._cha
 0020 696e0073 697a655f 74005f73 686f7274  in.size_t._short
 0030 62756600 5f494f5f 6275665f 62617365  buf._IO_buf_base
 0040 006c6f6e 67206c6f 6e672075 6e736967  .long long unsig
 0050 6e656420 696e7400 72656164 5f6c696e  ned int.read_lin
 0060 65006672 6565006c 6f6e6720 6c6f6e67  e.free.long long
 0070 20696e74 00706861 73655f64 65667573   int.phase_defus
 0080 6564005f 66696c65 6e6f005f 494f5f72  ed._fileno._IO_r
 0090 6561645f 656e6400 5f666c61 6773005f  ead_end._flags._
 00a0 494f5f62 75665f65 6e64005f 6375725f  IO_buf_end._cur_
 00b0 636f6c75 6d6e005f 494f5f63 6f646563  column._IO_codec
 00c0 7674005f 5f707269 6e74665f 63686b00  vt.__printf_chk.
 00d0 5f6f6c64 5f6f6666 73657400 696e6669  _old_offset.infi
 00e0 6c650069 6e697469 616c697a 655f626f  le.initialize_bo
 00f0 6d620069 6e707574 5f737472 696e6773  mb.input_strings
 0100 005f494f 5f6d6172 6b657200 73746469  ._IO_marker.stdi
 0110 6e005f66 72656572 65735f62 7566005f  n._freeres_buf._
 0120 494f5f77 72697465 5f707472 00737973  IO_write_ptr.sys
 0130 5f6e6572 72007368 6f727420 756e7369  _nerr.short unsi
 0140 676e6564 20696e74 005f494f 5f736176  gned int._IO_sav
 0150 655f6261 7365005f 6c6f636b 005f666c  e_base._lock._fl
 0160 61677332 005f6d6f 6465005f 5f627569  ags2._mode.__bui
 0170 6c74696e 5f707574 73007374 646f7574  ltin_puts.stdout
 0180 005f494f 5f777269 74655f65 6e64005f  ._IO_write_end._
 0190 494f5f6c 6f636b5f 74005f49 4f5f4649  IO_lock_t._IO_FI
 01a0 4c450066 6f70656e 00737973 5f657272  LE.fopen.sys_err
 01b0 6c697374 005f6d61 726b6572 7300756e  list._markers.un
 01c0 7369676e 65642063 68617200 474e5520  signed char.GNU 
 01d0 43313720 392e332e 30202d6d 74756e65  C17 9.3.0 -mtune
 01e0 3d67656e 65726963 202d6d61 7263683d  =generic -march=
 01f0 7838362d 3634202d 67676462 202d4f67  x86-64 -ggdb -Og
 0200 202d6661 73796e63 68726f6e 6f75732d   -fasynchronous-
 0210 756e7769 6e642d74 61626c65 73202d66  unwind-tables -f
 0220 73746163 6b2d7072 6f746563 746f722d  stack-protector-
 0230 7374726f 6e67202d 66737461 636b2d63  strong -fstack-c
 0240 6c617368 2d70726f 74656374 696f6e20  lash-protection 
 0250 2d666366 2d70726f 74656374 696f6e00  -fcf-protection.
 0260 73686f72 7420696e 74005f49 4f5f7769  short int._IO_wi
 0270 64655f64 61746100 5f767461 626c655f  de_data._vtable_
 0280 6f666673 65740065 78697400 626f6d62  offset.exit.bomb
 0290 2e630069 6e707574 002f686f 6d652f61  .c.input./home/a
 02a0 70702f77 65626170 702f636f 75727365  pp/webapp/course
 02b0 732f4943 53323032 322f626f 6d626c61  s/ICS2022/bombla
 02c0 622f7372 63005f5f 6f666636 345f7400  b/src.__off64_t.
 02d0 5f494f5f 72656164 5f626173 65007365  _IO_read_base.se
 02e0 63726574 5f746f6b 656e7300 5f494f5f  cret_tokens._IO_
 02f0 73617665 5f656e64 005f5f66 6d74005f  save_end.__fmt._
 0300 5f706164 35005f75 6e757365 64320073  _pad5._unused2.s
 0310 74646572 72006172 67760070 68617365  tderr.argv.phase
 0320 5f310070 68617365 5f320070 68617365  _1.phase_2.phase
 0330 5f330070 68617365 5f340070 68617365  _3.phase_4.phase
 0340 5f350070 68617365 5f36005f 494f5f62  _5.phase_6._IO_b
 0350 61636b75 705f6261 73650061 72676300  ackup_base.argc.
 0360 5f667265 65726573 5f6c6973 74006d61  _freeres_list.ma
 0370 696e005f 494f5f77 72697465 5f626173  in._IO_write_bas
 0380 6500                                 e.              
Contents of section .debug_loc:
 0000 00000000 00000000 00000000 00000000  ................
 0010 00000000 16000000 00000000 01005516  ..............U.
 0020 00000000 0000005b 00000000 00000004  .......[........
 0030 00f30155 9f5b0000 00000000 006b0000  ...U.[.......k..
 0040 00000000 00010055 6b000000 00000000  .......Uk.......
 0050 8d000000 00000000 0400f301 559f8d00  ............U...
 0060 00000000 00009c00 00000000 00000100  ................
 0070 559c0000 00000000 008f0100 00000000  U...............
 0080 000400f3 01559f00 00000000 00000000  .....U..........
 0090 00000000 00000000 00000000 00000000  ................
 00a0 00000000 00000000 0000001d 00000000  ................
 00b0 00000001 00541d00 00000000 00002e00  .....T..........
 00c0 00000000 00000100 532e0000 00000000  ........S.......
 00d0 005b0000 00000000 000400f3 01549f5b  .[...........T.[
 00e0 00000000 0000006b 00000000 00000001  .......k........
 00f0 00546b00 00000000 0000b000 00000000  .Tk.............
 0100 00000100 53b00000 00000000 008f0100  ....S...........
 0110 00000000 000400f3 01549f00 00000000  .........T......
 0120 00000000 00000000 00000000 00000000  ................
 0130 00000000 000000d0 00000000 000000d4  ................
 0140 00000000 00000001 0050f100 00000000  .........P......
 0150 0000f500 00000000 00000100 50120100  ............P...
 0160 00000000 00160100 00000000 00010050  ...............P
 0170 33010000 00000000 37010000 00000000  3.......7.......
 0180 01005054 01000000 00000058 01000000  ..PT.......X....
 0190 00000001 00507501 00000000 00007901  .....Pu.......y.
 01a0 00000000 00000100 50000000 00000000  ........P.......
 01b0 00000000 00000000 00000000 02000000  ................
 01c0 01010036 00000000 0000004f 00000000  ...6.......O....
 01d0 00000001 00504f00 00000000 00005400  .....PO.......T.
 01e0 00000000 00000100 53b00000 00000000  ........S.......
 01f0 00bb0000 00000000 00010050 bb000000  ...........P....
 0200 00000000 8a010000 00000000 0100538a  ..............S.
 0210 01000000 0000008f 01000000 00000002  ................
 0220 00309f00 00000000 00000000 00000000  .0..............
 0230 00000001 003e0000 00000000 00540000  .....>.......T..
 0240 00000000 000a0003 88400000 00000000  .........@......
 0250 9f000000 00000000 00000000 00000000  ................
 0260 00000072 00000000 00000083 00000000  ...r............
 0270 0000000a 00030440 00000000 00009f00  .......@........
 0280 00000000 00000000 00000000 00000000  ................
 0290 00900000 00000000 00a60000 00000000  ................
 02a0 000a0003 21400000 00000000 9f000000  ....!@..........
 02b0 00000000 00000000 00000000 000100b0  ................
 02c0 00000000 000000bc 00000000 00000006  ................
 02d0 00f2c308 00000000 00000000 00000000  ................
 02e0 00000000 00000002 00bc0000 00000000  ................
 02f0 00c80000 00000000 000600f2 0d090000  ................
 0300 00000000 00000000 00000000 00000000  ................
 0310 000100dd 00000000 000000e9 00000000  ................
 0320 00000006 00f24c09 00000000 00000000  ......L.........
 0330 00000000 00000000 00000001 00fe0000  ................
 0340 00000000 000a0100 00000000 000600f2  ................
 0350 7a090000 00000000 00000000 00000000  z...............
 0360 00000000 0001001f 01000000 0000002b  ...............+
 0370 01000000 00000006 00f29c09 00000000  ................
 0380 00000000 00000000 00000000 00000001  ................
 0390 00400100 00000000 004c0100 00000000  .@.......L......
 03a0 000600f2 b0090000 00000000 00000000  ................
 03b0 00000000 00000000 00010061 01000000  ...........a....
 03c0 0000006d 01000000 00000006 00f2d909  ...m............
 03d0 00000000 00000000 00000000 00000000  ................
 03e0 000000                               ...             

Disassembly of section .init:

0000000000001000 <_init>:
    1000:	f3 0f 1e fa          	endbr64 
    1004:	48 83 ec 08          	sub    $0x8,%rsp
    1008:	48 8b 05 d9 5f 00 00 	mov    0x5fd9(%rip),%rax        # 6fe8 <__gmon_start__>
    100f:	48 85 c0             	test   %rax,%rax
    1012:	74 02                	je     1016 <_init+0x16>
    1014:	ff d0                	callq  *%rax
    1016:	48 83 c4 08          	add    $0x8,%rsp
    101a:	c3                   	retq   

Disassembly of section .plt:

0000000000001020 <.plt>:
    1020:	ff 35 ba 5e 00 00    	pushq  0x5eba(%rip)        # 6ee0 <_GLOBAL_OFFSET_TABLE_+0x8>
    1026:	f2 ff 25 bb 5e 00 00 	bnd jmpq *0x5ebb(%rip)        # 6ee8 <_GLOBAL_OFFSET_TABLE_+0x10>
    102d:	0f 1f 00             	nopl   (%rax)
    1030:	f3 0f 1e fa          	endbr64 
    1034:	68 00 00 00 00       	pushq  $0x0
    1039:	f2 e9 e1 ff ff ff    	bnd jmpq 1020 <.plt>
    103f:	90                   	nop
    1040:	f3 0f 1e fa          	endbr64 
    1044:	68 01 00 00 00       	pushq  $0x1
    1049:	f2 e9 d1 ff ff ff    	bnd jmpq 1020 <.plt>
    104f:	90                   	nop
    1050:	f3 0f 1e fa          	endbr64 
    1054:	68 02 00 00 00       	pushq  $0x2
    1059:	f2 e9 c1 ff ff ff    	bnd jmpq 1020 <.plt>
    105f:	90                   	nop
    1060:	f3 0f 1e fa          	endbr64 
    1064:	68 03 00 00 00       	pushq  $0x3
    1069:	f2 e9 b1 ff ff ff    	bnd jmpq 1020 <.plt>
    106f:	90                   	nop
    1070:	f3 0f 1e fa          	endbr64 
    1074:	68 04 00 00 00       	pushq  $0x4
    1079:	f2 e9 a1 ff ff ff    	bnd jmpq 1020 <.plt>
    107f:	90                   	nop
    1080:	f3 0f 1e fa          	endbr64 
    1084:	68 05 00 00 00       	pushq  $0x5
    1089:	f2 e9 91 ff ff ff    	bnd jmpq 1020 <.plt>
    108f:	90                   	nop
    1090:	f3 0f 1e fa          	endbr64 
    1094:	68 06 00 00 00       	pushq  $0x6
    1099:	f2 e9 81 ff ff ff    	bnd jmpq 1020 <.plt>
    109f:	90                   	nop
    10a0:	f3 0f 1e fa          	endbr64 
    10a4:	68 07 00 00 00       	pushq  $0x7
    10a9:	f2 e9 71 ff ff ff    	bnd jmpq 1020 <.plt>
    10af:	90                   	nop
    10b0:	f3 0f 1e fa          	endbr64 
    10b4:	68 08 00 00 00       	pushq  $0x8
    10b9:	f2 e9 61 ff ff ff    	bnd jmpq 1020 <.plt>
    10bf:	90                   	nop
    10c0:	f3 0f 1e fa          	endbr64 
    10c4:	68 09 00 00 00       	pushq  $0x9
    10c9:	f2 e9 51 ff ff ff    	bnd jmpq 1020 <.plt>
    10cf:	90                   	nop
    10d0:	f3 0f 1e fa          	endbr64 
    10d4:	68 0a 00 00 00       	pushq  $0xa
    10d9:	f2 e9 41 ff ff ff    	bnd jmpq 1020 <.plt>
    10df:	90                   	nop
    10e0:	f3 0f 1e fa          	endbr64 
    10e4:	68 0b 00 00 00       	pushq  $0xb
    10e9:	f2 e9 31 ff ff ff    	bnd jmpq 1020 <.plt>
    10ef:	90                   	nop
    10f0:	f3 0f 1e fa          	endbr64 
    10f4:	68 0c 00 00 00       	pushq  $0xc
    10f9:	f2 e9 21 ff ff ff    	bnd jmpq 1020 <.plt>
    10ff:	90                   	nop
    1100:	f3 0f 1e fa          	endbr64 
    1104:	68 0d 00 00 00       	pushq  $0xd
    1109:	f2 e9 11 ff ff ff    	bnd jmpq 1020 <.plt>
    110f:	90                   	nop
    1110:	f3 0f 1e fa          	endbr64 
    1114:	68 0e 00 00 00       	pushq  $0xe
    1119:	f2 e9 01 ff ff ff    	bnd jmpq 1020 <.plt>
    111f:	90                   	nop
    1120:	f3 0f 1e fa          	endbr64 
    1124:	68 0f 00 00 00       	pushq  $0xf
    1129:	f2 e9 f1 fe ff ff    	bnd jmpq 1020 <.plt>
    112f:	90                   	nop
    1130:	f3 0f 1e fa          	endbr64 
    1134:	68 10 00 00 00       	pushq  $0x10
    1139:	f2 e9 e1 fe ff ff    	bnd jmpq 1020 <.plt>
    113f:	90                   	nop
    1140:	f3 0f 1e fa          	endbr64 
    1144:	68 11 00 00 00       	pushq  $0x11
    1149:	f2 e9 d1 fe ff ff    	bnd jmpq 1020 <.plt>
    114f:	90                   	nop
    1150:	f3 0f 1e fa          	endbr64 
    1154:	68 12 00 00 00       	pushq  $0x12
    1159:	f2 e9 c1 fe ff ff    	bnd jmpq 1020 <.plt>
    115f:	90                   	nop
    1160:	f3 0f 1e fa          	endbr64 
    1164:	68 13 00 00 00       	pushq  $0x13
    1169:	f2 e9 b1 fe ff ff    	bnd jmpq 1020 <.plt>
    116f:	90                   	nop
    1170:	f3 0f 1e fa          	endbr64 
    1174:	68 14 00 00 00       	pushq  $0x14
    1179:	f2 e9 a1 fe ff ff    	bnd jmpq 1020 <.plt>
    117f:	90                   	nop
    1180:	f3 0f 1e fa          	endbr64 
    1184:	68 15 00 00 00       	pushq  $0x15
    1189:	f2 e9 91 fe ff ff    	bnd jmpq 1020 <.plt>
    118f:	90                   	nop
    1190:	f3 0f 1e fa          	endbr64 
    1194:	68 16 00 00 00       	pushq  $0x16
    1199:	f2 e9 81 fe ff ff    	bnd jmpq 1020 <.plt>
    119f:	90                   	nop
    11a0:	f3 0f 1e fa          	endbr64 
    11a4:	68 17 00 00 00       	pushq  $0x17
    11a9:	f2 e9 71 fe ff ff    	bnd jmpq 1020 <.plt>
    11af:	90                   	nop
    11b0:	f3 0f 1e fa          	endbr64 
    11b4:	68 18 00 00 00       	pushq  $0x18
    11b9:	f2 e9 61 fe ff ff    	bnd jmpq 1020 <.plt>
    11bf:	90                   	nop
    11c0:	f3 0f 1e fa          	endbr64 
    11c4:	68 19 00 00 00       	pushq  $0x19
    11c9:	f2 e9 51 fe ff ff    	bnd jmpq 1020 <.plt>
    11cf:	90                   	nop
    11d0:	f3 0f 1e fa          	endbr64 
    11d4:	68 1a 00 00 00       	pushq  $0x1a
    11d9:	f2 e9 41 fe ff ff    	bnd jmpq 1020 <.plt>
    11df:	90                   	nop
    11e0:	f3 0f 1e fa          	endbr64 
    11e4:	68 1b 00 00 00       	pushq  $0x1b
    11e9:	f2 e9 31 fe ff ff    	bnd jmpq 1020 <.plt>
    11ef:	90                   	nop
    11f0:	f3 0f 1e fa          	endbr64 
    11f4:	68 1c 00 00 00       	pushq  $0x1c
    11f9:	f2 e9 21 fe ff ff    	bnd jmpq 1020 <.plt>
    11ff:	90                   	nop

Disassembly of section .plt.got:

0000000000001200 <__cxa_finalize@plt>:
    1200:	f3 0f 1e fa          	endbr64 
    1204:	f2 ff 25 ed 5d 00 00 	bnd jmpq *0x5ded(%rip)        # 6ff8 <__cxa_finalize@GLIBC_2.2.5>
    120b:	0f 1f 44 00 00       	nopl   0x0(%rax,%rax,1)

Disassembly of section .plt.sec:

0000000000001210 <getenv@plt>:
    1210:	f3 0f 1e fa          	endbr64 
    1214:	f2 ff 25 d5 5c 00 00 	bnd jmpq *0x5cd5(%rip)        # 6ef0 <getenv@GLIBC_2.2.5>
    121b:	0f 1f 44 00 00       	nopl   0x0(%rax,%rax,1)

0000000000001220 <free@plt>:
    1220:	f3 0f 1e fa          	endbr64 
    1224:	f2 ff 25 cd 5c 00 00 	bnd jmpq *0x5ccd(%rip)        # 6ef8 <free@GLIBC_2.2.5>
    122b:	0f 1f 44 00 00       	nopl   0x0(%rax,%rax,1)

0000000000001230 <strcasecmp@plt>:
    1230:	f3 0f 1e fa          	endbr64 
    1234:	f2 ff 25 c5 5c 00 00 	bnd jmpq *0x5cc5(%rip)        # 6f00 <strcasecmp@GLIBC_2.2.5>
    123b:	0f 1f 44 00 00       	nopl   0x0(%rax,%rax,1)

0000000000001240 <__errno_location@plt>:
    1240:	f3 0f 1e fa          	endbr64 
    1244:	f2 ff 25 bd 5c 00 00 	bnd jmpq *0x5cbd(%rip)        # 6f08 <__errno_location@GLIBC_2.2.5>
    124b:	0f 1f 44 00 00       	nopl   0x0(%rax,%rax,1)

0000000000001250 <strcpy@plt>:
    1250:	f3 0f 1e fa          	endbr64 
    1254:	f2 ff 25 b5 5c 00 00 	bnd jmpq *0x5cb5(%rip)        # 6f10 <strcpy@GLIBC_2.2.5>
    125b:	0f 1f 44 00 00       	nopl   0x0(%rax,%rax,1)

0000000000001260 <puts@plt>:
    1260:	f3 0f 1e fa          	endbr64 
    1264:	f2 ff 25 ad 5c 00 00 	bnd jmpq *0x5cad(%rip)        # 6f18 <puts@GLIBC_2.2.5>
    126b:	0f 1f 44 00 00       	nopl   0x0(%rax,%rax,1)

0000000000001270 <write@plt>:
    1270:	f3 0f 1e fa          	endbr64 
    1274:	f2 ff 25 a5 5c 00 00 	bnd jmpq *0x5ca5(%rip)        # 6f20 <write@GLIBC_2.2.5>
    127b:	0f 1f 44 00 00       	nopl   0x0(%rax,%rax,1)

0000000000001280 <__stack_chk_fail@plt>:
    1280:	f3 0f 1e fa          	endbr64 
    1284:	f2 ff 25 9d 5c 00 00 	bnd jmpq *0x5c9d(%rip)        # 6f28 <__stack_chk_fail@GLIBC_2.4>
    128b:	0f 1f 44 00 00       	nopl   0x0(%rax,%rax,1)

0000000000001290 <alarm@plt>:
    1290:	f3 0f 1e fa          	endbr64 
    1294:	f2 ff 25 95 5c 00 00 	bnd jmpq *0x5c95(%rip)        # 6f30 <alarm@GLIBC_2.2.5>
    129b:	0f 1f 44 00 00       	nopl   0x0(%rax,%rax,1)

00000000000012a0 <close@plt>:
    12a0:	f3 0f 1e fa          	endbr64 
    12a4:	f2 ff 25 8d 5c 00 00 	bnd jmpq *0x5c8d(%rip)        # 6f38 <close@GLIBC_2.2.5>
    12ab:	0f 1f 44 00 00       	nopl   0x0(%rax,%rax,1)

00000000000012b0 <read@plt>:
    12b0:	f3 0f 1e fa          	endbr64 
    12b4:	f2 ff 25 85 5c 00 00 	bnd jmpq *0x5c85(%rip)        # 6f40 <read@GLIBC_2.2.5>
    12bb:	0f 1f 44 00 00       	nopl   0x0(%rax,%rax,1)

00000000000012c0 <fgets@plt>:
    12c0:	f3 0f 1e fa          	endbr64 
    12c4:	f2 ff 25 7d 5c 00 00 	bnd jmpq *0x5c7d(%rip)        # 6f48 <fgets@GLIBC_2.2.5>
    12cb:	0f 1f 44 00 00       	nopl   0x0(%rax,%rax,1)

00000000000012d0 <signal@plt>:
    12d0:	f3 0f 1e fa          	endbr64 
    12d4:	f2 ff 25 75 5c 00 00 	bnd jmpq *0x5c75(%rip)        # 6f50 <signal@GLIBC_2.2.5>
    12db:	0f 1f 44 00 00       	nopl   0x0(%rax,%rax,1)

00000000000012e0 <gethostbyname@plt>:
    12e0:	f3 0f 1e fa          	endbr64 
    12e4:	f2 ff 25 6d 5c 00 00 	bnd jmpq *0x5c6d(%rip)        # 6f58 <gethostbyname@GLIBC_2.2.5>
    12eb:	0f 1f 44 00 00       	nopl   0x0(%rax,%rax,1)

00000000000012f0 <__memmove_chk@plt>:
    12f0:	f3 0f 1e fa          	endbr64 
    12f4:	f2 ff 25 65 5c 00 00 	bnd jmpq *0x5c65(%rip)        # 6f60 <__memmove_chk@GLIBC_2.3.4>
    12fb:	0f 1f 44 00 00       	nopl   0x0(%rax,%rax,1)

0000000000001300 <memcpy@plt>:
    1300:	f3 0f 1e fa          	endbr64 
    1304:	f2 ff 25 5d 5c 00 00 	bnd jmpq *0x5c5d(%rip)        # 6f68 <memcpy@GLIBC_2.14>
    130b:	0f 1f 44 00 00       	nopl   0x0(%rax,%rax,1)

0000000000001310 <malloc@plt>:
    1310:	f3 0f 1e fa          	endbr64 
    1314:	f2 ff 25 55 5c 00 00 	bnd jmpq *0x5c55(%rip)        # 6f70 <malloc@GLIBC_2.2.5>
    131b:	0f 1f 44 00 00       	nopl   0x0(%rax,%rax,1)

0000000000001320 <fflush@plt>:
    1320:	f3 0f 1e fa          	endbr64 
    1324:	f2 ff 25 4d 5c 00 00 	bnd jmpq *0x5c4d(%rip)        # 6f78 <fflush@GLIBC_2.2.5>
    132b:	0f 1f 44 00 00       	nopl   0x0(%rax,%rax,1)

0000000000001330 <__isoc99_sscanf@plt>:
    1330:	f3 0f 1e fa          	endbr64 
    1334:	f2 ff 25 45 5c 00 00 	bnd jmpq *0x5c45(%rip)        # 6f80 <__isoc99_sscanf@GLIBC_2.7>
    133b:	0f 1f 44 00 00       	nopl   0x0(%rax,%rax,1)

0000000000001340 <__printf_chk@plt>:
    1340:	f3 0f 1e fa          	endbr64 
    1344:	f2 ff 25 3d 5c 00 00 	bnd jmpq *0x5c3d(%rip)        # 6f88 <__printf_chk@GLIBC_2.3.4>
    134b:	0f 1f 44 00 00       	nopl   0x0(%rax,%rax,1)

0000000000001350 <fopen@plt>:
    1350:	f3 0f 1e fa          	endbr64 
    1354:	f2 ff 25 35 5c 00 00 	bnd jmpq *0x5c35(%rip)        # 6f90 <fopen@GLIBC_2.2.5>
    135b:	0f 1f 44 00 00       	nopl   0x0(%rax,%rax,1)

0000000000001360 <gethostname@plt>:
    1360:	f3 0f 1e fa          	endbr64 
    1364:	f2 ff 25 2d 5c 00 00 	bnd jmpq *0x5c2d(%rip)        # 6f98 <gethostname@GLIBC_2.2.5>
    136b:	0f 1f 44 00 00       	nopl   0x0(%rax,%rax,1)

0000000000001370 <exit@plt>:
    1370:	f3 0f 1e fa          	endbr64 
    1374:	f2 ff 25 25 5c 00 00 	bnd jmpq *0x5c25(%rip)        # 6fa0 <exit@GLIBC_2.2.5>
    137b:	0f 1f 44 00 00       	nopl   0x0(%rax,%rax,1)

0000000000001380 <connect@plt>:
    1380:	f3 0f 1e fa          	endbr64 
    1384:	f2 ff 25 1d 5c 00 00 	bnd jmpq *0x5c1d(%rip)        # 6fa8 <connect@GLIBC_2.2.5>
    138b:	0f 1f 44 00 00       	nopl   0x0(%rax,%rax,1)

0000000000001390 <__fprintf_chk@plt>:
    1390:	f3 0f 1e fa          	endbr64 
    1394:	f2 ff 25 15 5c 00 00 	bnd jmpq *0x5c15(%rip)        # 6fb0 <__fprintf_chk@GLIBC_2.3.4>
    139b:	0f 1f 44 00 00       	nopl   0x0(%rax,%rax,1)

00000000000013a0 <sleep@plt>:
    13a0:	f3 0f 1e fa          	endbr64 
    13a4:	f2 ff 25 0d 5c 00 00 	bnd jmpq *0x5c0d(%rip)        # 6fb8 <sleep@GLIBC_2.2.5>
    13ab:	0f 1f 44 00 00       	nopl   0x0(%rax,%rax,1)

00000000000013b0 <__ctype_b_loc@plt>:
    13b0:	f3 0f 1e fa          	endbr64 
    13b4:	f2 ff 25 05 5c 00 00 	bnd jmpq *0x5c05(%rip)        # 6fc0 <__ctype_b_loc@GLIBC_2.3>
    13bb:	0f 1f 44 00 00       	nopl   0x0(%rax,%rax,1)

00000000000013c0 <__sprintf_chk@plt>:
    13c0:	f3 0f 1e fa          	endbr64 
    13c4:	f2 ff 25 fd 5b 00 00 	bnd jmpq *0x5bfd(%rip)        # 6fc8 <__sprintf_chk@GLIBC_2.3.4>
    13cb:	0f 1f 44 00 00       	nopl   0x0(%rax,%rax,1)

00000000000013d0 <socket@plt>:
    13d0:	f3 0f 1e fa          	endbr64 
    13d4:	f2 ff 25 f5 5b 00 00 	bnd jmpq *0x5bf5(%rip)        # 6fd0 <socket@GLIBC_2.2.5>
    13db:	0f 1f 44 00 00       	nopl   0x0(%rax,%rax,1)

Disassembly of section .text:

00000000000013e0 <_start>:
    13e0:	f3 0f 1e fa          	endbr64 
    13e4:	31 ed                	xor    %ebp,%ebp
    13e6:	49 89 d1             	mov    %rdx,%r9
    13e9:	5e                   	pop    %rsi
    13ea:	48 89 e2             	mov    %rsp,%rdx
    13ed:	48 83 e4 f0          	and    $0xfffffffffffffff0,%rsp
    13f1:	50                   	push   %rax
    13f2:	54                   	push   %rsp
    13f3:	4c 8d 05 d6 1e 00 00 	lea    0x1ed6(%rip),%r8        # 32d0 <__libc_csu_fini>
    13fa:	48 8d 0d 5f 1e 00 00 	lea    0x1e5f(%rip),%rcx        # 3260 <__libc_csu_init>
    1401:	48 8d 3d c1 00 00 00 	lea    0xc1(%rip),%rdi        # 14c9 <main>
    1408:	ff 15 d2 5b 00 00    	callq  *0x5bd2(%rip)        # 6fe0 <__libc_start_main@GLIBC_2.2.5>
    140e:	f4                   	hlt    
    140f:	90                   	nop

0000000000001410 <deregister_tm_clones>:
    1410:	48 8d 3d 49 70 00 00 	lea    0x7049(%rip),%rdi        # 8460 <stdout@@GLIBC_2.2.5>
    1417:	48 8d 05 42 70 00 00 	lea    0x7042(%rip),%rax        # 8460 <stdout@@GLIBC_2.2.5>
    141e:	48 39 f8             	cmp    %rdi,%rax
    1421:	74 15                	je     1438 <deregister_tm_clones+0x28>
    1423:	48 8b 05 ae 5b 00 00 	mov    0x5bae(%rip),%rax        # 6fd8 <_ITM_deregisterTMCloneTable>
    142a:	48 85 c0             	test   %rax,%rax
    142d:	74 09                	je     1438 <deregister_tm_clones+0x28>
    142f:	ff e0                	jmpq   *%rax
    1431:	0f 1f 80 00 00 00 00 	nopl   0x0(%rax)
    1438:	c3                   	retq   
    1439:	0f 1f 80 00 00 00 00 	nopl   0x0(%rax)

0000000000001440 <register_tm_clones>:
    1440:	48 8d 3d 19 70 00 00 	lea    0x7019(%rip),%rdi        # 8460 <stdout@@GLIBC_2.2.5>
    1447:	48 8d 35 12 70 00 00 	lea    0x7012(%rip),%rsi        # 8460 <stdout@@GLIBC_2.2.5>
    144e:	48 29 fe             	sub    %rdi,%rsi
    1451:	48 89 f0             	mov    %rsi,%rax
    1454:	48 c1 ee 3f          	shr    $0x3f,%rsi
    1458:	48 c1 f8 03          	sar    $0x3,%rax
    145c:	48 01 c6             	add    %rax,%rsi
    145f:	48 d1 fe             	sar    %rsi
    1462:	74 14                	je     1478 <register_tm_clones+0x38>
    1464:	48 8b 05 85 5b 00 00 	mov    0x5b85(%rip),%rax        # 6ff0 <_ITM_registerTMCloneTable>
    146b:	48 85 c0             	test   %rax,%rax
    146e:	74 08                	je     1478 <register_tm_clones+0x38>
    1470:	ff e0                	jmpq   *%rax
    1472:	66 0f 1f 44 00 00    	nopw   0x0(%rax,%rax,1)
    1478:	c3                   	retq   
    1479:	0f 1f 80 00 00 00 00 	nopl   0x0(%rax)

0000000000001480 <__do_global_dtors_aux>:
    1480:	f3 0f 1e fa          	endbr64 
    1484:	80 3d fd 6f 00 00 00 	cmpb   $0x0,0x6ffd(%rip)        # 8488 <completed.8060>
    148b:	75 2b                	jne    14b8 <__do_global_dtors_aux+0x38>
    148d:	55                   	push   %rbp
    148e:	48 83 3d 62 5b 00 00 	cmpq   $0x0,0x5b62(%rip)        # 6ff8 <__cxa_finalize@GLIBC_2.2.5>
    1495:	00 
    1496:	48 89 e5             	mov    %rsp,%rbp
    1499:	74 0c                	je     14a7 <__do_global_dtors_aux+0x27>
    149b:	48 8b 3d 66 5b 00 00 	mov    0x5b66(%rip),%rdi        # 7008 <__dso_handle>
    14a2:	e8 59 fd ff ff       	callq  1200 <__cxa_finalize@plt>
    14a7:	e8 64 ff ff ff       	callq  1410 <deregister_tm_clones>
    14ac:	c6 05 d5 6f 00 00 01 	movb   $0x1,0x6fd5(%rip)        # 8488 <completed.8060>
    14b3:	5d                   	pop    %rbp
    14b4:	c3                   	retq   
    14b5:	0f 1f 00             	nopl   (%rax)
    14b8:	c3                   	retq   
    14b9:	0f 1f 80 00 00 00 00 	nopl   0x0(%rax)

00000000000014c0 <frame_dummy>:
    14c0:	f3 0f 1e fa          	endbr64 
    14c4:	e9 77 ff ff ff       	jmpq   1440 <register_tm_clones>

00000000000014c9 <main>:
    14c9:	f3 0f 1e fa          	endbr64 
    14cd:	53                   	push   %rbx
    14ce:	83 ff 01             	cmp    $0x1,%edi
    14d1:	74 51                	je     1524 <main+0x5b>
    14d3:	48 89 f3             	mov    %rsi,%rbx
    14d6:	83 ff 02             	cmp    $0x2,%edi
    14d9:	75 7b                	jne    1556 <main+0x8d>
    14db:	48 8b 7e 08          	mov    0x8(%rsi),%rdi
    14df:	48 8d 35 d0 32 00 00 	lea    0x32d0(%rip),%rsi        # 47b6 <transition_table+0x3d6>
    14e6:	e8 65 fe ff ff       	callq  1350 <fopen@plt>
    14eb:	48 89 05 9e 6f 00 00 	mov    %rax,0x6f9e(%rip)        # 8490 <infile>
    14f2:	48 85 c0             	test   %rax,%rax
    14f5:	74 3d                	je     1534 <main+0x6b>
    14f7:	e8 ca 08 00 00       	callq  1dc6 <initialize_bomb>
    14fc:	48 89 c3             	mov    %rax,%rbx
    14ff:	81 38 11 fa 22 20    	cmpl   $0x2022fa11,(%rax)
    1505:	74 72                	je     1579 <main+0xb0>
    1507:	48 8d 35 7a 2b 00 00 	lea    0x2b7a(%rip),%rsi        # 4088 <_IO_stdin_used+0x88>
    150e:	bf 01 00 00 00       	mov    $0x1,%edi
    1513:	b8 00 00 00 00       	mov    $0x0,%eax
    1518:	e8 23 fe ff ff       	callq  1340 <__printf_chk@plt>
    151d:	b8 00 00 00 00       	mov    $0x0,%eax
    1522:	5b                   	pop    %rbx
    1523:	c3                   	retq   
    1524:	48 8b 05 45 6f 00 00 	mov    0x6f45(%rip),%rax        # 8470 <stdin@@GLIBC_2.2.5>
    152b:	48 89 05 5e 6f 00 00 	mov    %rax,0x6f5e(%rip)        # 8490 <infile>
    1532:	eb c3                	jmp    14f7 <main+0x2e>
    1534:	48 8b 4b 08          	mov    0x8(%rbx),%rcx
    1538:	48 8b 13             	mov    (%rbx),%rdx
    153b:	48 8d 35 c2 2a 00 00 	lea    0x2ac2(%rip),%rsi        # 4004 <_IO_stdin_used+0x4>
    1542:	bf 01 00 00 00       	mov    $0x1,%edi
    1547:	e8 f4 fd ff ff       	callq  1340 <__printf_chk@plt>
    154c:	bf 08 00 00 00       	mov    $0x8,%edi
    1551:	e8 1a fe ff ff       	callq  1370 <exit@plt>
    1556:	48 8b 16             	mov    (%rsi),%rdx
    1559:	48 8d 35 c1 2a 00 00 	lea    0x2ac1(%rip),%rsi        # 4021 <_IO_stdin_used+0x21>
    1560:	bf 01 00 00 00       	mov    $0x1,%edi
    1565:	b8 00 00 00 00       	mov    $0x0,%eax
    156a:	e8 d1 fd ff ff       	callq  1340 <__printf_chk@plt>
    156f:	bf 08 00 00 00       	mov    $0x8,%edi
    1574:	e8 f7 fd ff ff       	callq  1370 <exit@plt>
    1579:	48 8d 3d 48 2b 00 00 	lea    0x2b48(%rip),%rdi        # 40c8 <_IO_stdin_used+0xc8>
    1580:	e8 db fc ff ff       	callq  1260 <puts@plt>
    1585:	48 8d 3d 7c 2b 00 00 	lea    0x2b7c(%rip),%rdi        # 4108 <_IO_stdin_used+0x108>
    158c:	e8 cf fc ff ff       	callq  1260 <puts@plt>
    1591:	e8 e9 0c 00 00       	callq  227f <read_line>
    1596:	48 89 c7             	mov    %rax,%rdi
    1599:	e8 0f 02 00 00       	callq  17ad <phase_1>
    159e:	48 89 df             	mov    %rbx,%rdi
    15a1:	e8 24 0e 00 00       	callq  23ca <phase_defused>
    15a6:	48 8d 3d 9b 2b 00 00 	lea    0x2b9b(%rip),%rdi        # 4148 <_IO_stdin_used+0x148>
    15ad:	e8 ae fc ff ff       	callq  1260 <puts@plt>
    15b2:	e8 c8 0c 00 00       	callq  227f <read_line>
    15b7:	48 89 c7             	mov    %rax,%rdi
    15ba:	e8 12 02 00 00       	callq  17d1 <phase_2>
    15bf:	48 89 df             	mov    %rbx,%rdi
    15c2:	e8 03 0e 00 00       	callq  23ca <phase_defused>
    15c7:	48 8d 3d 6d 2a 00 00 	lea    0x2a6d(%rip),%rdi        # 403b <_IO_stdin_used+0x3b>
    15ce:	e8 8d fc ff ff       	callq  1260 <puts@plt>
    15d3:	e8 a7 0c 00 00       	callq  227f <read_line>
    15d8:	48 89 c7             	mov    %rax,%rdi
    15db:	e8 6e 02 00 00       	callq  184e <phase_3>
    15e0:	48 89 df             	mov    %rbx,%rdi
    15e3:	e8 e2 0d 00 00       	callq  23ca <phase_defused>
    15e8:	48 8d 3d 69 2a 00 00 	lea    0x2a69(%rip),%rdi        # 4058 <_IO_stdin_used+0x58>
    15ef:	e8 6c fc ff ff       	callq  1260 <puts@plt>
    15f4:	e8 86 0c 00 00       	callq  227f <read_line>
    15f9:	48 89 c7             	mov    %rax,%rdi
    15fc:	e8 44 03 00 00       	callq  1945 <phase_4>
    1601:	48 89 df             	mov    %rbx,%rdi
    1604:	e8 c1 0d 00 00       	callq  23ca <phase_defused>
    1609:	48 8d 3d 68 2b 00 00 	lea    0x2b68(%rip),%rdi        # 4178 <_IO_stdin_used+0x178>
    1610:	e8 4b fc ff ff       	callq  1260 <puts@plt>
    1615:	e8 65 0c 00 00       	callq  227f <read_line>
    161a:	48 89 c7             	mov    %rax,%rdi
    161d:	e8 a7 03 00 00       	callq  19c9 <phase_5>
    1622:	48 89 df             	mov    %rbx,%rdi
    1625:	e8 a0 0d 00 00       	callq  23ca <phase_defused>
    162a:	48 8d 3d 36 2a 00 00 	lea    0x2a36(%rip),%rdi        # 4067 <_IO_stdin_used+0x67>
    1631:	e8 2a fc ff ff       	callq  1260 <puts@plt>
    1636:	e8 44 0c 00 00       	callq  227f <read_line>
    163b:	48 89 c7             	mov    %rax,%rdi
    163e:	e8 19 04 00 00       	callq  1a5c <phase_6>
    1643:	48 89 df             	mov    %rbx,%rdi
    1646:	e8 7f 0d 00 00       	callq  23ca <phase_defused>
    164b:	48 89 df             	mov    %rbx,%rdi
    164e:	e8 cd fb ff ff       	callq  1220 <free@plt>
    1653:	e9 c5 fe ff ff       	jmpq   151d <main+0x54>

0000000000001658 <abracadabra>:
    1658:	f3 0f 1e fa          	endbr64 
    165c:	48 81 ec a8 00 00 00 	sub    $0xa8,%rsp
    1663:	64 48 8b 04 25 28 00 	mov    %fs:0x28,%rax
    166a:	00 00 
    166c:	48 89 84 24 98 00 00 	mov    %rax,0x98(%rsp)
    1673:	00 
    1674:	31 c0                	xor    %eax,%eax
    1676:	48 8d 4c 24 0c       	lea    0xc(%rsp),%rcx
    167b:	48 8d 54 24 08       	lea    0x8(%rsp),%rdx
    1680:	48 83 ec 08          	sub    $0x8,%rsp
    1684:	48 8d 44 24 28       	lea    0x28(%rsp),%rax
    1689:	50                   	push   %rax
    168a:	48 8d 44 24 2c       	lea    0x2c(%rsp),%rax
    168f:	50                   	push   %rax
    1690:	48 8d 44 24 30       	lea    0x30(%rsp),%rax
    1695:	50                   	push   %rax
    1696:	4c 8d 4c 24 34       	lea    0x34(%rsp),%r9
    169b:	4c 8d 44 24 30       	lea    0x30(%rsp),%r8
    16a0:	48 8d 35 f5 2a 00 00 	lea    0x2af5(%rip),%rsi        # 419c <_IO_stdin_used+0x19c>
    16a7:	48 8d 3d 6a 6e 00 00 	lea    0x6e6a(%rip),%rdi        # 8518 <input_strings+0x78>
    16ae:	b8 00 00 00 00       	mov    $0x0,%eax
    16b3:	e8 78 fc ff ff       	callq  1330 <__isoc99_sscanf@plt>
    16b8:	48 83 c4 20          	add    $0x20,%rsp
    16bc:	83 f8 07             	cmp    $0x7,%eax
    16bf:	74 20                	je     16e1 <abracadabra+0x89>
    16c1:	b8 00 00 00 00       	mov    $0x0,%eax
    16c6:	48 8b b4 24 98 00 00 	mov    0x98(%rsp),%rsi
    16cd:	00 
    16ce:	64 48 33 34 25 28 00 	xor    %fs:0x28,%rsi
    16d5:	00 00 
    16d7:	75 2b                	jne    1704 <abracadabra+0xac>
    16d9:	48 81 c4 a8 00 00 00 	add    $0xa8,%rsp
    16e0:	c3                   	retq   
    16e1:	48 8d 7c 24 20       	lea    0x20(%rsp),%rdi
    16e6:	48 8d 35 db 2a 00 00 	lea    0x2adb(%rip),%rsi        # 41c8 <_IO_stdin_used+0x1c8>
    16ed:	e8 83 06 00 00       	callq  1d75 <strings_not_equal>
    16f2:	85 c0                	test   %eax,%eax
    16f4:	74 07                	je     16fd <abracadabra+0xa5>
    16f6:	b8 00 00 00 00       	mov    $0x0,%eax
    16fb:	eb c9                	jmp    16c6 <abracadabra+0x6e>
    16fd:	b8 01 00 00 00       	mov    $0x1,%eax
    1702:	eb c2                	jmp    16c6 <abracadabra+0x6e>
    1704:	e8 77 fb ff ff       	callq  1280 <__stack_chk_fail@plt>

0000000000001709 <alohomora>:
    1709:	f3 0f 1e fa          	endbr64 
    170d:	48 81 ec 98 00 00 00 	sub    $0x98,%rsp
    1714:	64 48 8b 04 25 28 00 	mov    %fs:0x28,%rax
    171b:	00 00 
    171d:	48 89 84 24 88 00 00 	mov    %rax,0x88(%rsp)
    1724:	00 
    1725:	31 c0                	xor    %eax,%eax
    1727:	48 8d 4c 24 0c       	lea    0xc(%rsp),%rcx
    172c:	48 8d 54 24 08       	lea    0x8(%rsp),%rdx
    1731:	4c 8d 44 24 10       	lea    0x10(%rsp),%r8
    1736:	48 8d 35 6b 2a 00 00 	lea    0x2a6b(%rip),%rsi        # 41a8 <_IO_stdin_used+0x1a8>
    173d:	48 8d 3d c4 6e 00 00 	lea    0x6ec4(%rip),%rdi        # 8608 <input_strings+0x168>
    1744:	e8 e7 fb ff ff       	callq  1330 <__isoc99_sscanf@plt>
    1749:	83 f8 03             	cmp    $0x3,%eax
    174c:	74 20                	je     176e <alohomora+0x65>
    174e:	b8 00 00 00 00       	mov    $0x0,%eax
    1753:	48 8b b4 24 88 00 00 	mov    0x88(%rsp),%rsi
    175a:	00 
    175b:	64 48 33 34 25 28 00 	xor    %fs:0x28,%rsi
    1762:	00 00 
    1764:	75 42                	jne    17a8 <alohomora+0x9f>
    1766:	48 81 c4 98 00 00 00 	add    $0x98,%rsp
    176d:	c3                   	retq   
    176e:	48 8d 54 24 10       	lea    0x10(%rsp),%rdx
    1773:	0f b6 02             	movzbl (%rdx),%eax
    1776:	84 c0                	test   %al,%al
    1778:	74 0b                	je     1785 <alohomora+0x7c>
    177a:	83 c0 02             	add    $0x2,%eax
    177d:	88 02                	mov    %al,(%rdx)
    177f:	48 83 c2 01          	add    $0x1,%rdx
    1783:	eb ee                	jmp    1773 <alohomora+0x6a>
    1785:	48 8d 7c 24 10       	lea    0x10(%rsp),%rdi
    178a:	48 8d 35 57 2a 00 00 	lea    0x2a57(%rip),%rsi        # 41e8 <_IO_stdin_used+0x1e8>
    1791:	e8 df 05 00 00       	callq  1d75 <strings_not_equal>
    1796:	85 c0                	test   %eax,%eax
    1798:	74 07                	je     17a1 <alohomora+0x98>
    179a:	b8 00 00 00 00       	mov    $0x0,%eax
    179f:	eb b2                	jmp    1753 <alohomora+0x4a>
    17a1:	b8 01 00 00 00       	mov    $0x1,%eax
    17a6:	eb ab                	jmp    1753 <alohomora+0x4a>
    17a8:	e8 d3 fa ff ff       	callq  1280 <__stack_chk_fail@plt>

00000000000017ad <phase_1>:                                         # strcmp
    17ad:	f3 0f 1e fa          	endbr64 
    17b1:	48 83 ec 08          	sub    $0x8,%rsp                # -8
    17b5:	48 8d 35 54 2a 00 00 	lea    0x2a54(%rip),%rsi        # 4210 <_IO_stdin_used+0x210> %rsi0x4210
    17bc:	e8 b4 05 00 00       	callq  1d75 <strings_not_equal> # 
    17c1:	85 c0                	test   %eax,%eax                # %eaxstrings_not_equal

                                                                    # CFOF0&SF0
                                                                    # ZF%eax%raxfalse0&0=0ZF1true1&1=1ZF0

    17c3:	75 05                	jne    17ca <phase_1+0x1d>      # jnejnz0~ZF
                                                                    # trueZF=017ca
    17c5:	48 83 c4 08          	add    $0x8,%rsp                # +8
    17c9:	c3                   	retq                            # 
    17ca:	e8 7d 09 00 00       	callq  214c <explode_bomb>      # 
    17cf:	eb f4                	jmp    17c5 <phase_1+0x18>      # +8
    # -8+8
    # 
    # 
    # 
    # C%rdi%rsi
    #  phase_1 (char* src)
    # {
    #     long may_be_a_flag;
    #     char* ans_phase_1 = ""; // 
    #     may_be_a_flag = strings_not_equal(src, ans_phase_1);
    # \   if (may_be_a_flag == 0)
    #     {
    #         explode_bomb();
    #     }
    #     return ;
    # } // mainphase_1readlinemovq %rax,%rdi
    #   // 

00000000000017d1 <phase_2>:
    17d1:	f3 0f 1e fa          	endbr64 
    17d5:	53                   	push   %rbx
    17d6:	48 83 ec 20          	sub    $0x20,%rsp               # 32
    17da:	64 48 8b 04 25 28 00 	mov    %fs:0x28,%rax            # 
    17e1:	00 00 
    17e3:	48 89 44 24 18       	mov    %rax,0x18(%rsp)          # +24824
                                                                    # 246

    17e8:	31 c0                	xor    %eax,%eax                # 0%eax%rax
    17ea:	48 89 e6             	mov    %rsp,%rsi                # rsi24
    17ed:	e8 48 0a 00 00       	callq  223a <read_six_numbers>  # 6
                                                                    # 

                                                                    # %rsp

    17f2:	83 3c 24 00          	cmpl   $0x0,(%rsp)              #  0
    17f6:	75 07                	jne    17ff <phase_2+0x2e>      # 0
                                                                    # 0
    17f8:	83 7c 24 04 01       	cmpl   $0x1,0x4(%rsp)           #  +41
    17fd:	74 05                	je     1804 <phase_2+0x33>      # 
    17ff:	e8 48 09 00 00       	callq  214c <explode_bomb>      # 
                                                                    # 1

    1804:	bb 02 00 00 00       	mov    $0x2,%ebx                # %ebx20
    1809:	eb 08                	jmp    1813 <phase_2+0x42>      # 
    180b:	e8 3c 09 00 00       	callq  214c <explode_bomb>
                                                                    # 
    1810:	83 c3 01             	add    $0x1,%ebx
    1813:	83 fb 05             	cmp    $0x5,%ebx                # 5%ebx
    1816:	7f 1b                	jg     1833 <phase_2+0x62>      # %ebx > 5
    1818:	48 63 d3             	movslq %ebx,%rdx                #  %rdx
    181b:	8d 4b fe             	lea    -0x2(%rbx),%ecx          # %ecx = %rbx - 2
    181e:	48 63 c9             	movslq %ecx,%rcx                # %rcx = %ecx
    1821:	8d 43 ff             	lea    -0x1(%rbx),%eax          # %eax = %rbx - 1
    1824:	48 98                	cltq                            # %eax = %rax
    1826:	8b 04 84             	mov    (%rsp,%rax,4),%eax       # %eax = M[%rsp + 4 * %rax]
    1829:	03 04 8c             	add    (%rsp,%rcx,4),%eax       # %eax += M[%rsp + 4 * %rcx]
    182c:	39 04 94             	cmp    %eax,(%rsp,%rdx,4)       # %eaxM[%rsp + 4 * %rdx]
    182f:	74 df                	je     1810 <phase_2+0x3f>      # ++%ebx
    1831:	eb d8                	jmp    180b <phase_2+0x3a>      # 
                                                                    # 
    1833:	48 8b 44 24 18       	mov    0x18(%rsp),%rax          # %rax = 24 + %rsp
    1838:	64 48 33 04 25 28 00 	xor    %fs:0x28,%rax            # 
    183f:	00 00 
    1841:	75 06                	jne    1849 <phase_2+0x78>      # 
    1843:	48 83 c4 20          	add    $0x20,%rsp
    1847:	5b                   	pop    %rbx
    1848:	c3                   	retq   
    1849:	e8 32 fa ff ff       	callq  1280 <__stack_chk_fail@plt>  # 
    # 6
    #   int a[6];
    #   read_six_numbers(a);
    # / if (a[0] != 0 && a[1] != 1) explode_bomb();
    #   for (int i = 2; i <= 5; i++)
    #   {
    # /     if (a[i - 2] + a[i - 1] != a[i])
    #           explode_bomb();
    #   }

000000000000184e <phase_3>:
    184e:	f3 0f 1e fa          	endbr64 
    1852:	48 83 ec 18          	sub    $0x18,%rsp               # 24Byte
    1856:	64 48 8b 04 25 28 00 	mov    %fs:0x28,%rax            # 
    185d:	00 00                                                   # 
    185f:	48 89 44 24 08       	mov    %rax,0x8(%rsp)           
    1864:	31 c0                	xor    %eax,%eax                # 0
    1866:	48 8d 4c 24 04       	lea    0x4(%rsp),%rcx           # %rcx = %rsp + 4y
    186b:	48 89 e2             	mov    %rsp,%rdx                # %rdx = %rspx
    186e:	48 8d 35 a3 2e 00 00 	lea    0x2ea3(%rip),%rsi        # 4718 <transition_table+0x338>
                                                                    # "%d %d"
    1875:	e8 b6 fa ff ff       	callq  1330 <__isoc99_sscanf@plt>
    187a:	83 f8 01             	cmp    $0x1,%eax                # 
    187d:	7e 1b                	jle    189a <phase_3+0x4c>      # <=1
    187f:	8b 04 24             	mov    (%rsp),%eax              # %eax = %rspx%eax
    1882:	83 f8 07             	cmp    $0x7,%eax                # x7
    1885:	77 64                	ja     18eb <phase_3+0x9d>      # 7>x
    1887:	89 c0                	mov    %eax,%eax                # %eax = %eax
    1889:	48 8d 15 f0 2a 00 00 	lea    0x2af0(%rip),%rdx        # 4380 <_IO_stdin_used+0x380> 
                                                                    # 0xffffd521-10975
    1890:	48 63 04 82          	movslq (%rdx,%rax,4),%rax       # %rax = M[%rdx + %rax * 4];
    1894:	48 01 d0             	add    %rdx,%rax                # %rax += %rdx
    1897:	3e ff e0             	notrack jmpq *%rax              # %rax
    189a:	e8 ad 08 00 00       	callq  214c <explode_bomb>      # 
    189f:	eb de                	jmp    187f <phase_3+0x31>      # x%eax
    18a1:	b8 ca 03 00 00       	mov    $0x3ca,%eax              # %eax = 970
    18a6:	39 44 24 04          	cmp    %eax,0x4(%rsp)           # 970y
    18aa:	75 52                	jne    18fe <phase_3+0xb0>      # 
    18ac:	48 8b 44 24 08       	mov    0x8(%rsp),%rax           # %rax = %rsp + 8
    18b1:	64 48 33 04 25 28 00 	xor    %fs:0x28,%rax            # 
    18b8:	00 00 
    18ba:	75 49                	jne    1905 <phase_3+0xb7>      # 
    18bc:	48 83 c4 18          	add    $0x18,%rsp               # x+18
    18c0:	c3                   	retq                            # 
    # 0970
    #  if (y == 970)

    18c1:	b8 49 00 00 00       	mov    $0x49,%eax
    18c6:	eb de                	jmp    18a6 <phase_3+0x58>
    18c8:	b8 f5 01 00 00       	mov    $0x1f5,%eax
    18cd:	eb d7                	jmp    18a6 <phase_3+0x58>
    18cf:	b8 9e 00 00 00       	mov    $0x9e,%eax
    18d4:	eb d0                	jmp    18a6 <phase_3+0x58>
    18d6:	b8 3e 00 00 00       	mov    $0x3e,%eax
    18db:	eb c9                	jmp    18a6 <phase_3+0x58>
    18dd:	b8 4b 02 00 00       	mov    $0x24b,%eax
    18e2:	eb c2                	jmp    18a6 <phase_3+0x58>
    18e4:	b8 e5 03 00 00       	mov    $0x3e5,%eax
    18e9:	eb bb                	jmp    18a6 <phase_3+0x58>
    18eb:	e8 5c 08 00 00       	callq  214c <explode_bomb>
    18f0:	b8 00 00 00 00       	mov    $0x0,%eax
    18f5:	eb af                	jmp    18a6 <phase_3+0x58>
    18f7:	b8 71 01 00 00       	mov    $0x171,%eax
    18fc:	eb a8                	jmp    18a6 <phase_3+0x58>
    18fe:	e8 49 08 00 00       	callq  214c <explode_bomb>
    1903:	eb a7                	jmp    18ac <phase_3+0x5e>
    1905:	e8 76 f9 ff ff       	callq  1280 <__stack_chk_fail@plt>

000000000000190a <func4>:                                       # %ebx%ebp
    190a:	f3 0f 1e fa          	endbr64 
    190e:	85 ff                	test   %edi,%edi            # if (%edi & %edi == 0)
    1910:	7e 29                	jle    193b <func4+0x31>    # 
    1912:	55                   	push   %rbp                 # 
    1913:	53                   	push   %rbx                 # 
    1914:	48 83 ec 08          	sub    $0x8,%rsp            # 8
    1918:	89 fb                	mov    %edi,%ebx            # %ebx = %edi
    191a:	83 ff 01             	cmp    $0x1,%edi            # if (%edi == 1)
    191d:	74 22                	je     1941 <func4+0x37>    # 
    191f:	8d 7f ff             	lea    -0x1(%rdi),%edi      # %edi = %rdi - 1
    1922:	e8 e3 ff ff ff       	callq  190a <func4>         # md
    1927:	8d 2c 00             	lea    (%rax,%rax,1),%ebp   # %ebp = %rax * 2
    192a:	8d 7b fe             	lea    -0x2(%rbx),%edi      # %edi = %rbx - 2
    192d:	e8 d8 ff ff ff       	callq  190a <func4>         # 
    1932:	01 e8                	add    %ebp,%eax            # %eax = %ebp
    1934:	48 83 c4 08          	add    $0x8,%rsp            # 
    1938:	5b                   	pop    %rbx                 # 
    1939:	5d                   	pop    %rbp                 # 
    193a:	c3                   	retq   
    193b:	b8 00 00 00 00       	mov    $0x0,%eax            # %eax = 0
    1940:	c3                   	retq                        # 
    1941:	89 f8                	mov    %edi,%eax            # %eax = %edi
    1943:	eb ef                	jmp    1934 <func4+0x2a>    # 
    # hjh
    # ni

0000000000001945 <phase_4>:
    1945:	f3 0f 1e fa          	endbr64 
    1949:	55                   	push   %rbp                     # 
    194a:	53                   	push   %rbx                     # 
    194b:	48 83 ec 18          	sub    $0x18,%rsp               # %rsp -= 24
    194f:	64 48 8b 04 25 28 00 	mov    %fs:0x28,%rax            # 
    1956:	00 00 
    1958:	48 89 44 24 08       	mov    %rax,0x8(%rsp)           # M[rsp+8] = %rax
    195d:	31 c0                	xor    %eax,%eax                # %rax0
    195f:	48 8d 4c 24 04       	lea    0x4(%rsp),%rcx           # %rcx = %rsp + 4 y
    1964:	48 89 e2             	mov    %rsp,%rdx                # %rdx = %rsp x
    1967:	48 8d 35 aa 2d 00 00 	lea    0x2daa(%rip),%rsi        # 4718 <transition_table+0x338>"%d %d"
    196e:	e8 bd f9 ff ff       	callq  1330 <__isoc99_sscanf@plt>   # 
    1973:	83 f8 02             	cmp    $0x2,%eax                    # 
    1976:	75 06                	jne    197e <phase_4+0x39>          # 
    1978:	83 3c 24 04          	cmpl   $0x4,(%rsp)                  # x4
    197c:	74 05                	je     1983 <phase_4+0x3e>          # 
    197e:	e8 c9 07 00 00       	callq  214c <explode_bomb>
    1983:	bd 00 00 00 00       	mov    $0x0,%ebp                # %ebp = 0;
    1988:	bb 00 00 00 00       	mov    $0x0,%ebx                # %ebx = 0;
    198d:	39 1c 24             	cmp    %ebx,(%rsp)              # if (%ebx <= 4)
    1990:	7e 0e                	jle    19a0 <phase_4+0x5b>      # 
    1992:	89 df                	mov    %ebx,%edi                # %edi = %ebx
    1994:	e8 71 ff ff ff       	callq  190a <func4>             # func4
    1999:	01 c5                	add    %eax,%ebp                # %ebp += %eax
    199b:	83 c3 01             	add    $0x1,%ebx                # ++%ebx
    199e:	eb ed                	jmp    198d <phase_4+0x48>      # 
    19a0:	39 6c 24 04          	cmp    %ebp,0x4(%rsp)           # if (%ebp != y)
    19a4:	75 17                	jne    19bd <phase_4+0x78>      # 
    19a6:	48 8b 44 24 08       	mov    0x8(%rsp),%rax           # %rax = M[%rsp + 8]
    19ab:	64 48 33 04 25 28 00 	xor    %fs:0x28,%rax            # 
    19b2:	00 00 
    19b4:	75 0e                	jne    19c4 <phase_4+0x7f>      # 
    19b6:	48 83 c4 18          	add    $0x18,%rsp               # 24
    19ba:	5b                   	pop    %rbx                     # 
    19bb:	5d                   	pop    %rbp                     # 
    19bc:	c3                   	retq   
    19bd:	e8 8a 07 00 00       	callq  214c <explode_bomb>
    19c2:	eb e2                	jmp    19a6 <phase_4+0x61>
    19c4:	e8 b7 f8 ff ff       	callq  1280 <__stack_chk_fail@plt>
    # if%ebp==y

00000000000019c9 <phase_5>:
    19c9:	f3 0f 1e fa          	endbr64 
    19cd:	48 83 ec 18          	sub    $0x18,%rsp               # 24
    19d1:	64 48 8b 04 25 28 00 	mov    %fs:0x28,%rax            # 
    19d8:	00 00 
    19da:	48 89 44 24 08       	mov    %rax,0x8(%rsp)           # M[%rsp + 8] = %rax
    19df:	31 c0                	xor    %eax,%eax                # %rax = 0
    19e1:	48 8d 4c 24 04       	lea    0x4(%rsp),%rcx           # %rcx = %rsp + 4x
    19e6:	48 89 e2             	mov    %rsp,%rdx                # %rdx = %rspy
    19e9:	48 8d 35 28 2d 00 00 	lea    0x2d28(%rip),%rsi        # 4718 <transition_table+0x338> "%d %d"
    19f0:	e8 3b f9 ff ff       	callq  1330 <__isoc99_sscanf@plt>   # x
    19f5:	83 f8 01             	cmp    $0x1,%eax                # if ()
    19f8:	7e 31                	jle    1a2b <phase_5+0x62>      # 
    19fa:	8b 04 24             	mov    (%rsp),%eax              # %rax = y
    19fd:	83 e0 0f             	and    $0xf,%eax                # %rax &= 16
    1a00:	89 04 24             	mov    %eax,(%rsp)              # y
    1a03:	b9 00 00 00 00       	mov    $0x0,%ecx                # %ecx = 0
    1a08:	ba 00 00 00 00       	mov    $0x0,%edx                # %edx = 0
    1a0d:	8b 04 24             	mov    (%rsp),%eax              # %rax = y
    1a10:	83 f8 0f             	cmp    $0xf,%eax                # if (15 == %rax)
    1a13:	74 1d                	je     1a32 <phase_5+0x69>      # 
    1a15:	83 c2 01             	add    $0x1,%edx                # %edx++
    1a18:	48 98                	cltq
    1a1a:	48 8d 35 7f 29 00 00 	lea    0x297f(%rip),%rsi        # 43a0 <array.3500>
                                                                    # 10, 2, 14, 7, 8, 12, 15, 11, 0, 4, 1, 13, 3, 9, 6, 5
    1a21:	8b 04 86             	mov    (%rsi,%rax,4),%eax       # %rax = M[%rsi + %rax * 4] a[%rax]
    1a24:	89 04 24             	mov    %eax,(%rsp)
    1a27:	01 c1                	add    %eax,%ecx                # %ecx += y
    1a29:	eb e2                	jmp    1a0d <phase_5+0x44>      # 
    1a2b:	e8 1c 07 00 00       	callq  214c <explode_bomb>      # 
    1a30:	eb c8                	jmp    19fa <phase_5+0x31>
    1a32:	83 fa 0f             	cmp    $0xf,%edx                # if (%edx != 16)
    1a35:	75 06                	jne    1a3d <phase_5+0x74>      # explode
    1a37:	39 4c 24 04          	cmp    %ecx,0x4(%rsp)
    1a3b:	74 05                	je     1a42 <phase_5+0x79>      # if (%ecx != M[%rsp + 4])   
    1a3d:	e8 0a 07 00 00       	callq  214c <explode_bomb>      # explode
    1a42:	48 8b 44 24 08       	mov    0x8(%rsp),%rax
    1a47:	64 48 33 04 25 28 00 	xor    %fs:0x28,%rax
    1a4e:	00 00 
    1a50:	75 05                	jne    1a57 <phase_5+0x8e>
    1a52:	48 83 c4 18          	add    $0x18,%rsp
    1a56:	c3                   	retq   
    1a57:	e8 24 f8 ff ff       	callq  1280 <__stack_chk_fail@plt>
    
    # int a[] = {10, 2, 14, 7, 8, 12, 15, 11, 0, 4, 1, 13, 3, 9, 6, 5};
    # int x, y;
    # scanf("%d %d", &x, &y)
    # int i = 0, j = 0;
    # while (x != 15)
    # {
    #     x = a[x];
    #     j += x;
    #     i++;
    # }
# /   if (i != 15 || y != h)
    #     explode_bomb();

0000000000001a5c <phase_6>:
    1a5c:	f3 0f 1e fa          	endbr64 
    1a60:	41 54                	push   %r12
    1a62:	55                   	push   %rbp
    1a63:	53                   	push   %rbx
    1a64:	48 83 ec 60          	sub    $0x60,%rsp               # 96
    1a68:	64 48 8b 04 25 28 00 	mov    %fs:0x28,%rax            # 
    1a6f:	00 00 
    1a71:	48 89 44 24 58       	mov    %rax,0x58(%rsp)          # +94
    1a76:	31 c0                	xor    %eax,%eax                # %rax = 0
    1a78:	48 89 e6             	mov    %rsp,%rsi                # %rsi = %rsp // 6
    1a7b:	e8 ba 07 00 00       	callq  223a <read_six_numbers>
    1a80:	bd 00 00 00 00       	mov    $0x0,%ebp                # i = 0
    1a85:	eb 27                	jmp    1aae <phase_6+0x52>      # 

    1a87:	e8 c0 06 00 00       	callq  214c <explode_bomb>

    1a8c:	eb 33                	jmp    1ac1 <phase_6+0x65>      # 

    # 
    1a8e:	83 c3 01             	add    $0x1,%ebx                # j += 1
    1a91:	83 fb 05             	cmp    $0x5,%ebx                # j > 5
    1a94:	7f 15                	jg     1aab <phase_6+0x4f>      # 
    1a96:	48 63 c5             	movslq %ebp,%rax                # %rax = 0
    1a99:	48 63 d3             	movslq %ebx,%rdx                # %rdx = j
    1a9c:	8b 3c 94             	mov    (%rsp,%rdx,4),%edi       # %rdi = a[j]
    1a9f:	39 3c 84             	cmp    %edi,(%rsp,%rax,4)       # if (M[%rsp + 4 * %rax] != a[j])
    1aa2:	75 ea                	jne    1a8e <phase_6+0x32>      # 

    1aa4:	e8 a3 06 00 00       	callq  214c <explode_bomb>

    # 
    1aa9:	eb e3                	jmp    1a8e <phase_6+0x32>
    1aab:	44 89 e5             	mov    %r12d,%ebp               # i = %r12d
    1aae:	83 fd 05             	cmp    $0x5,%ebp                # if (i > 5)
    1ab1:	7f 17                	jg     1aca <phase_6+0x6e>      # 
    1ab3:	48 63 c5             	movslq %ebp,%rax
    1ab6:	8b 04 84             	mov    (%rsp,%rax,4),%eax       # k = a[i]
    1ab9:	83 e8 01             	sub    $0x1,%eax                # k -= 1
    1abc:	83 f8 05             	cmp    $0x5,%eax                # if (k > 5)
    1abf:	77 c6                	ja     1a87 <phase_6+0x2b>      # 61
    1ac1:	44 8d 65 01          	lea    0x1(%rbp),%r12d
    1ac5:	44 89 e3             	mov    %r12d,%ebx               # j = i + 1
    1ac8:	eb c7                	jmp    1a91 <phase_6+0x35>      # 
    1aca:	be 00 00 00 00       	mov    $0x0,%esi                # %rsi = 0
    1acf:	eb 08                	jmp    1ad9 <phase_6+0x7d>      # 

    # 07123456


    1ad1:	48 89 54 cc 20       	mov    %rdx,0x20(%rsp,%rcx,8)   # M[%rsp + 8 * i] = n
    1ad6:	83 c6 01             	add    $0x1,%esi                # i++
    1ad9:	83 fe 05             	cmp    $0x5,%esi                # if (i > 5)
    1adc:	7f 1d                	jg     1afb <phase_6+0x9f>      # 
    1ade:	b8 01 00 00 00       	mov    $0x1,%eax                # q = 1
    1ae3:	48 8d 15 66 65 00 00 	lea    0x6566(%rip),%rdx        # 8050 <node1> *n = 939
    1aea:	48 63 ce             	movslq %esi,%rcx
    1aed:	39 04 8c             	cmp    %eax,(%rsp,%rcx,4)       # if (a[i] <= q)
    1af0:	7e df                	jle    1ad1 <phase_6+0x75>      # 
    1af2:	48 8b 52 08          	mov    0x8(%rdx),%rdx           # n = M[n + 8]
    1af6:	83 c0 01             	add    $0x1,%eax                # q++
    1af9:	eb ef                	jmp    1aea <phase_6+0x8e>      # 

    # Node 
    # struct Node
    # {
    #     Node* p;
    #     int value;
    #     int rank;
    # }
    # 931-1249-2152-3778-4741-5487-6
    # 
    # 11234566 5 4 3 2 1
    # 2Noderank
    #    931-6 249-5 152-4 778-3 741-2 487-1
    # 3Noderank
    #    487-1 741-2 778-3 152-4 249-5 931-6
    # 4value
    # 

    1afb:	48 8b 5c 24 20       	mov    0x20(%rsp),%rbx
    1b00:	48 89 d9             	mov    %rbx,%rcx                # k = M[%rsp + 32]
    1b03:	b8 01 00 00 00       	mov    $0x1,%eax                # i = 1
    1b08:	eb 12                	jmp    1b1c <phase_6+0xc0>      # 

    1b0a:	48 63 d0             	movslq %eax,%rdx
    1b0d:	48 8b 54 d4 20       	mov    0x20(%rsp,%rdx,8),%rdx   # m = M[32 + %rsp + i * 8]
    1b12:	48 89 51 08          	mov    %rdx,0x8(%rcx)           # M[k + 8] = m
    1b16:	83 c0 01             	add    $0x1,%eax                # i++
    1b19:	48 89 d1             	mov    %rdx,%rcx                # k = m
    1b1c:	83 f8 05             	cmp    $0x5,%eax                # if (i <= 5)
    1b1f:	7e e9                	jle    1b0a <phase_6+0xae>      # 

    1b21:	48 c7 41 08 00 00 00 	movq   $0x0,0x8(%rcx)           # M[k + 8] = 0
    1b28:	00 

    # 

    1b29:	bd 00 00 00 00       	mov    $0x0,%ebp                # i = 0
    1b2e:	eb 07                	jmp    1b37 <phase_6+0xdb>      # 
    1b30:	48 8b 5b 08          	mov    0x8(%rbx),%rbx           # m = M[8 + m] 
    1b34:	83 c5 01             	add    $0x1,%ebp                # i++
    1b37:	83 fd 04             	cmp    $0x4,%ebp                # if (i > 4)
    1b3a:	7f 11                	jg     1b4d <phase_6+0xf1>      # 
    1b3c:	48 8b 43 08          	mov    0x8(%rbx),%rax           # k = M[8 + i]
    1b42:	39 03                	cmp    %eax,(%rbx)              # if (M[i] >= M[k])
    1b44:	7d ea                	jge    1b30 <phase_6+0xd4>      # 
    1b46:	e8 01 06 00 00       	callq  214c <explode_bomb>

    # 

    1b4b:	eb e3                	jmp    1b30 <phase_6+0xd4>      # 
    1b4d:	48 8b 44 24 58       	mov    0x58(%rsp),%rax          # 
    1b52:	64 48 33 04 25 28 00 	xor    %fs:0x28,%rax            # 
    1b59:	00 00 
    1b5b:	75 09                	jne    1b66 <phase_6+0x10a>     # 
    1b5d:	48 83 c4 60          	add    $0x60,%rsp               # 
    1b61:	5b                   	pop    %rbx                     # 
    1b62:	5d                   	pop    %rbp                     # 
    1b63:	41 5c                	pop    %r12                     # 
    1b65:	c3                   	retq   
    1b66:	e8 15 f7 ff ff       	callq  1280 <__stack_chk_fail@plt>

0000000000001b6b <emulate_fsm>:
    1b6b:	f3 0f 1e fa          	endbr64 
    1b6f:	55                   	push   %rbp
    1b70:	53                   	push   %rbx
    1b71:	48 83 ec 08          	sub    $0x8,%rsp
    1b75:	89 fd                	mov    %edi,%ebp
    1b77:	48 89 f3             	mov    %rsi,%rbx
    1b7a:	eb 27                	jmp    1ba3 <emulate_fsm+0x38>
    1b7c:	0f be 03             	movsbl (%rbx),%eax
    1b7f:	83 e8 30             	sub    $0x30,%eax
    1b82:	48 63 ed             	movslq %ebp,%rbp
    1b85:	48 98                	cltq   
    1b87:	48 8d 3c c5 00 00 00 	lea    0x0(,%rax,8),%rdi
    1b8e:	00 
    1b8f:	48 29 c7             	sub    %rax,%rdi
    1b92:	48 01 ef             	add    %rbp,%rdi
    1b95:	48 8d 05 44 28 00 00 	lea    0x2844(%rip),%rax        # 43e0 <transition_table>
    1b9c:	8b 2c b8             	mov    (%rax,%rdi,4),%ebp
    1b9f:	48 83 c3 01          	add    $0x1,%rbx
    1ba3:	0f b6 03             	movzbl (%rbx),%eax
    1ba6:	84 c0                	test   %al,%al
    1ba8:	74 0e                	je     1bb8 <emulate_fsm+0x4d>
    1baa:	83 e8 30             	sub    $0x30,%eax
    1bad:	3c 01                	cmp    $0x1,%al
    1baf:	76 cb                	jbe    1b7c <emulate_fsm+0x11>
    1bb1:	e8 96 05 00 00       	callq  214c <explode_bomb>
    1bb6:	eb c4                	jmp    1b7c <emulate_fsm+0x11>
    1bb8:	89 e8                	mov    %ebp,%eax
    1bba:	48 83 c4 08          	add    $0x8,%rsp
    1bbe:	5b                   	pop    %rbx
    1bbf:	5d                   	pop    %rbp
    1bc0:	c3                   	retq   

0000000000001bc1 <check_synchronizing_sequence>:
    1bc1:	f3 0f 1e fa          	endbr64 
    1bc5:	41 54                	push   %r12
    1bc7:	55                   	push   %rbp
    1bc8:	53                   	push   %rbx
    1bc9:	48 89 fd             	mov    %rdi,%rbp
    1bcc:	48 89 fe             	mov    %rdi,%rsi
    1bcf:	bf 00 00 00 00       	mov    $0x0,%edi
    1bd4:	e8 92 ff ff ff       	callq  1b6b <emulate_fsm>
    1bd9:	41 89 c4             	mov    %eax,%r12d
    1bdc:	bb 01 00 00 00       	mov    $0x1,%ebx
    1be1:	83 fb 06             	cmp    $0x6,%ebx
    1be4:	7f 14                	jg     1bfa <check_synchronizing_sequence+0x39>
    1be6:	48 89 ee             	mov    %rbp,%rsi
    1be9:	89 df                	mov    %ebx,%edi
    1beb:	e8 7b ff ff ff       	callq  1b6b <emulate_fsm>
    1bf0:	44 39 e0             	cmp    %r12d,%eax
    1bf3:	75 0f                	jne    1c04 <check_synchronizing_sequence+0x43>
    1bf5:	83 c3 01             	add    $0x1,%ebx
    1bf8:	eb e7                	jmp    1be1 <check_synchronizing_sequence+0x20>
    1bfa:	b8 00 00 00 00       	mov    $0x0,%eax
    1bff:	5b                   	pop    %rbx
    1c00:	5d                   	pop    %rbp
    1c01:	41 5c                	pop    %r12
    1c03:	c3                   	retq   
    1c04:	b8 ff ff ff ff       	mov    $0xffffffff,%eax
    1c09:	eb f4                	jmp    1bff <check_synchronizing_sequence+0x3e>

0000000000001c0b <secret_phase>:
    1c0b:	f3 0f 1e fa          	endbr64 
    1c0f:	55                   	push   %rbp
    1c10:	53                   	push   %rbx
    1c11:	48 83 ec 18          	sub    $0x18,%rsp
    1c15:	64 48 8b 04 25 28 00 	mov    %fs:0x28,%rax
    1c1c:	00 00 
    1c1e:	48 89 44 24 08       	mov    %rax,0x8(%rsp)
    1c23:	31 c0                	xor    %eax,%eax
    1c25:	e8 55 06 00 00       	callq  227f <read_line>
    1c2a:	48 89 c5             	mov    %rax,%rbp
    1c2d:	bb 00 00 00 00       	mov    $0x0,%ebx
    1c32:	eb 08                	jmp    1c3c <secret_phase+0x31>
    1c34:	e8 13 05 00 00       	callq  214c <explode_bomb>
    1c39:	83 c3 01             	add    $0x1,%ebx
    1c3c:	48 63 c3             	movslq %ebx,%rax
    1c3f:	80 7c 05 00 00       	cmpb   $0x0,0x0(%rbp,%rax,1)
    1c44:	74 07                	je     1c4d <secret_phase+0x42>
    1c46:	83 fb 18             	cmp    $0x18,%ebx
    1c49:	7e ee                	jle    1c39 <secret_phase+0x2e>
    1c4b:	eb e7                	jmp    1c34 <secret_phase+0x29>
    1c4d:	48 89 ef             	mov    %rbp,%rdi
    1c50:	e8 6c ff ff ff       	callq  1bc1 <check_synchronizing_sequence>
    1c55:	85 c0                	test   %eax,%eax
    1c57:	75 69                	jne    1cc2 <secret_phase+0xb7>
    1c59:	48 8d 3d 10 26 00 00 	lea    0x2610(%rip),%rdi        # 4270 <_IO_stdin_used+0x270>
    1c60:	e8 fb f5 ff ff       	callq  1260 <puts@plt>
    1c65:	48 8d 3d 3c 26 00 00 	lea    0x263c(%rip),%rdi        # 42a8 <_IO_stdin_used+0x2a8>
    1c6c:	e8 ef f5 ff ff       	callq  1260 <puts@plt>
    1c71:	48 8d 3d 70 26 00 00 	lea    0x2670(%rip),%rdi        # 42e8 <_IO_stdin_used+0x2e8>
    1c78:	e8 e3 f5 ff ff       	callq  1260 <puts@plt>
    1c7d:	48 8d 3d 9c 26 00 00 	lea    0x269c(%rip),%rdi        # 4320 <_IO_stdin_used+0x320>
    1c84:	e8 d7 f5 ff ff       	callq  1260 <puts@plt>
    1c89:	48 8d 3d d0 26 00 00 	lea    0x26d0(%rip),%rdi        # 4360 <_IO_stdin_used+0x360>
    1c90:	e8 cb f5 ff ff       	callq  1260 <puts@plt>
    1c95:	48 8d 3d 15 25 00 00 	lea    0x2515(%rip),%rdi        # 41b1 <_IO_stdin_used+0x1b1>
    1c9c:	e8 bf f5 ff ff       	callq  1260 <puts@plt>
    1ca1:	48 8d 7c 24 04       	lea    0x4(%rsp),%rdi
    1ca6:	e8 1f 07 00 00       	callq  23ca <phase_defused>
    1cab:	48 8b 44 24 08       	mov    0x8(%rsp),%rax
    1cb0:	64 48 33 04 25 28 00 	xor    %fs:0x28,%rax
    1cb7:	00 00 
    1cb9:	75 0e                	jne    1cc9 <secret_phase+0xbe>
    1cbb:	48 83 c4 18          	add    $0x18,%rsp
    1cbf:	5b                   	pop    %rbx
    1cc0:	5d                   	pop    %rbp
    1cc1:	c3                   	retq   
    1cc2:	e8 85 04 00 00       	callq  214c <explode_bomb>
    1cc7:	eb 90                	jmp    1c59 <secret_phase+0x4e>
    1cc9:	e8 b2 f5 ff ff       	callq  1280 <__stack_chk_fail@plt>

0000000000001cce <sig_handler>:
    1cce:	f3 0f 1e fa          	endbr64 
    1cd2:	50                   	push   %rax
    1cd3:	58                   	pop    %rax
    1cd4:	48 83 ec 08          	sub    $0x8,%rsp
    1cd8:	48 8d 3d 39 27 00 00 	lea    0x2739(%rip),%rdi        # 4418 <transition_table+0x38>
    1cdf:	e8 7c f5 ff ff       	callq  1260 <puts@plt>
    1ce4:	bf 03 00 00 00       	mov    $0x3,%edi
    1ce9:	e8 b2 f6 ff ff       	callq  13a0 <sleep@plt>
    1cee:	48 8d 35 9c 29 00 00 	lea    0x299c(%rip),%rsi        # 4691 <transition_table+0x2b1>
    1cf5:	bf 01 00 00 00       	mov    $0x1,%edi
    1cfa:	b8 00 00 00 00       	mov    $0x0,%eax
    1cff:	e8 3c f6 ff ff       	callq  1340 <__printf_chk@plt>
    1d04:	48 8b 3d 55 67 00 00 	mov    0x6755(%rip),%rdi        # 8460 <stdout@@GLIBC_2.2.5>
    1d0b:	e8 10 f6 ff ff       	callq  1320 <fflush@plt>
    1d10:	bf 01 00 00 00       	mov    $0x1,%edi
    1d15:	e8 86 f6 ff ff       	callq  13a0 <sleep@plt>
    1d1a:	48 8d 3d 78 29 00 00 	lea    0x2978(%rip),%rdi        # 4699 <transition_table+0x2b9>
    1d21:	e8 3a f5 ff ff       	callq  1260 <puts@plt>
    1d26:	bf 10 00 00 00       	mov    $0x10,%edi
    1d2b:	e8 40 f6 ff ff       	callq  1370 <exit@plt>

0000000000001d30 <invalid_phase>:
    1d30:	f3 0f 1e fa          	endbr64 
    1d34:	50                   	push   %rax
    1d35:	58                   	pop    %rax
    1d36:	48 83 ec 08          	sub    $0x8,%rsp
    1d3a:	48 89 fa             	mov    %rdi,%rdx
    1d3d:	48 8d 35 5d 29 00 00 	lea    0x295d(%rip),%rsi        # 46a1 <transition_table+0x2c1>
    1d44:	bf 01 00 00 00       	mov    $0x1,%edi
    1d49:	b8 00 00 00 00       	mov    $0x0,%eax
    1d4e:	e8 ed f5 ff ff       	callq  1340 <__printf_chk@plt>
    1d53:	bf 08 00 00 00       	mov    $0x8,%edi
    1d58:	e8 13 f6 ff ff       	callq  1370 <exit@plt>

0000000000001d5d <string_length>:
    1d5d:	f3 0f 1e fa          	endbr64 
    1d61:	b8 00 00 00 00       	mov    $0x0,%eax
    1d66:	80 3f 00             	cmpb   $0x0,(%rdi)
    1d69:	74 09                	je     1d74 <string_length+0x17>
    1d6b:	48 83 c7 01          	add    $0x1,%rdi
    1d6f:	83 c0 01             	add    $0x1,%eax
    1d72:	eb f2                	jmp    1d66 <string_length+0x9>
    1d74:	c3                   	retq   

0000000000001d75 <strings_not_equal>:
    1d75:	f3 0f 1e fa          	endbr64 
    1d79:	41 54                	push   %r12
    1d7b:	55                   	push   %rbp
    1d7c:	53                   	push   %rbx
    1d7d:	48 89 fb             	mov    %rdi,%rbx
    1d80:	48 89 f5             	mov    %rsi,%rbp
    1d83:	e8 d5 ff ff ff       	callq  1d5d <string_length>
    1d88:	41 89 c4             	mov    %eax,%r12d
    1d8b:	48 89 ef             	mov    %rbp,%rdi
    1d8e:	e8 ca ff ff ff       	callq  1d5d <string_length>
    1d93:	41 39 c4             	cmp    %eax,%r12d
    1d96:	75 1d                	jne    1db5 <strings_not_equal+0x40>
    1d98:	0f b6 03             	movzbl (%rbx),%eax
    1d9b:	84 c0                	test   %al,%al
    1d9d:	74 0f                	je     1dae <strings_not_equal+0x39>
    1d9f:	38 45 00             	cmp    %al,0x0(%rbp)
    1da2:	75 1b                	jne    1dbf <strings_not_equal+0x4a>
    1da4:	48 83 c3 01          	add    $0x1,%rbx
    1da8:	48 83 c5 01          	add    $0x1,%rbp
    1dac:	eb ea                	jmp    1d98 <strings_not_equal+0x23>
    1dae:	b8 00 00 00 00       	mov    $0x0,%eax
    1db3:	eb 05                	jmp    1dba <strings_not_equal+0x45>
    1db5:	b8 01 00 00 00       	mov    $0x1,%eax
    1dba:	5b                   	pop    %rbx
    1dbb:	5d                   	pop    %rbp
    1dbc:	41 5c                	pop    %r12
    1dbe:	c3                   	retq   
    1dbf:	b8 01 00 00 00       	mov    $0x1,%eax
    1dc4:	eb f4                	jmp    1dba <strings_not_equal+0x45>

0000000000001dc6 <initialize_bomb>:
    1dc6:	f3 0f 1e fa          	endbr64 
    1dca:	55                   	push   %rbp
    1dcb:	53                   	push   %rbx
    1dcc:	48 81 ec 00 10 00 00 	sub    $0x1000,%rsp
    1dd3:	48 83 0c 24 00       	orq    $0x0,(%rsp)
    1dd8:	48 81 ec 00 10 00 00 	sub    $0x1000,%rsp
    1ddf:	48 83 0c 24 00       	orq    $0x0,(%rsp)
    1de4:	48 83 ec 58          	sub    $0x58,%rsp
    1de8:	64 48 8b 04 25 28 00 	mov    %fs:0x28,%rax
    1def:	00 00 
    1df1:	48 89 84 24 48 20 00 	mov    %rax,0x2048(%rsp)
    1df8:	00 
    1df9:	31 c0                	xor    %eax,%eax
    1dfb:	48 8d 35 cc fe ff ff 	lea    -0x134(%rip),%rsi        # 1cce <sig_handler>
    1e02:	bf 02 00 00 00       	mov    $0x2,%edi
    1e07:	e8 c4 f4 ff ff       	callq  12d0 <signal@plt>
    1e0c:	48 89 e7             	mov    %rsp,%rdi
    1e0f:	be 40 00 00 00       	mov    $0x40,%esi
    1e14:	e8 47 f5 ff ff       	callq  1360 <gethostname@plt>
    1e19:	85 c0                	test   %eax,%eax
    1e1b:	75 06                	jne    1e23 <initialize_bomb+0x5d>
    1e1d:	89 c5                	mov    %eax,%ebp
    1e1f:	89 c3                	mov    %eax,%ebx
    1e21:	eb 19                	jmp    1e3c <initialize_bomb+0x76>
    1e23:	48 8d 3d 26 26 00 00 	lea    0x2626(%rip),%rdi        # 4450 <transition_table+0x70>
    1e2a:	e8 31 f4 ff ff       	callq  1260 <puts@plt>
    1e2f:	bf 08 00 00 00       	mov    $0x8,%edi
    1e34:	e8 37 f5 ff ff       	callq  1370 <exit@plt>
    1e39:	83 c3 01             	add    $0x1,%ebx
    1e3c:	48 63 c3             	movslq %ebx,%rax
    1e3f:	48 8d 15 5a 62 00 00 	lea    0x625a(%rip),%rdx        # 80a0 <host_table>
    1e46:	48 8b 3c c2          	mov    (%rdx,%rax,8),%rdi
    1e4a:	48 85 ff             	test   %rdi,%rdi
    1e4d:	74 11                	je     1e60 <initialize_bomb+0x9a>
    1e4f:	48 89 e6             	mov    %rsp,%rsi
    1e52:	e8 d9 f3 ff ff       	callq  1230 <strcasecmp@plt>
    1e57:	85 c0                	test   %eax,%eax
    1e59:	75 de                	jne    1e39 <initialize_bomb+0x73>
    1e5b:	bd 01 00 00 00       	mov    $0x1,%ebp
    1e60:	85 ed                	test   %ebp,%ebp
    1e62:	74 3b                	je     1e9f <initialize_bomb+0xd9>
    1e64:	48 8d 7c 24 40       	lea    0x40(%rsp),%rdi
    1e69:	e8 60 11 00 00       	callq  2fce <init_driver>
    1e6e:	85 c0                	test   %eax,%eax
    1e70:	78 43                	js     1eb5 <initialize_bomb+0xef>
    1e72:	bf 04 00 00 00       	mov    $0x4,%edi
    1e77:	e8 94 f4 ff ff       	callq  1310 <malloc@plt>
    1e7c:	c7 00 11 fa 22 20    	movl   $0x2022fa11,(%rax)
    1e82:	48 8b 8c 24 48 20 00 	mov    0x2048(%rsp),%rcx
    1e89:	00 
    1e8a:	64 48 33 0c 25 28 00 	xor    %fs:0x28,%rcx
    1e91:	00 00 
    1e93:	75 45                	jne    1eda <initialize_bomb+0x114>
    1e95:	48 81 c4 58 20 00 00 	add    $0x2058,%rsp
    1e9c:	5b                   	pop    %rbx
    1e9d:	5d                   	pop    %rbp
    1e9e:	c3                   	retq   
    1e9f:	48 8d 3d e2 25 00 00 	lea    0x25e2(%rip),%rdi        # 4488 <transition_table+0xa8>
    1ea6:	e8 b5 f3 ff ff       	callq  1260 <puts@plt>
    1eab:	bf 08 00 00 00       	mov    $0x8,%edi
    1eb0:	e8 bb f4 ff ff       	callq  1370 <exit@plt>
    1eb5:	48 8d 54 24 40       	lea    0x40(%rsp),%rdx
    1eba:	48 8d 35 f1 27 00 00 	lea    0x27f1(%rip),%rsi        # 46b2 <transition_table+0x2d2>
    1ec1:	bf 01 00 00 00       	mov    $0x1,%edi
    1ec6:	b8 00 00 00 00       	mov    $0x0,%eax
    1ecb:	e8 70 f4 ff ff       	callq  1340 <__printf_chk@plt>
    1ed0:	bf 08 00 00 00       	mov    $0x8,%edi
    1ed5:	e8 96 f4 ff ff       	callq  1370 <exit@plt>
    1eda:	e8 a1 f3 ff ff       	callq  1280 <__stack_chk_fail@plt>

0000000000001edf <initialize_bomb_solve>:
    1edf:	f3 0f 1e fa          	endbr64 
    1ee3:	c3                   	retq   

0000000000001ee4 <blank_line>:
    1ee4:	f3 0f 1e fa          	endbr64 
    1ee8:	55                   	push   %rbp
    1ee9:	53                   	push   %rbx
    1eea:	48 83 ec 08          	sub    $0x8,%rsp
    1eee:	48 89 fd             	mov    %rdi,%rbp
    1ef1:	0f b6 5d 00          	movzbl 0x0(%rbp),%ebx
    1ef5:	84 db                	test   %bl,%bl
    1ef7:	74 1e                	je     1f17 <blank_line+0x33>
    1ef9:	e8 b2 f4 ff ff       	callq  13b0 <__ctype_b_loc@plt>
    1efe:	48 8b 00             	mov    (%rax),%rax
    1f01:	48 83 c5 01          	add    $0x1,%rbp
    1f05:	48 0f be db          	movsbq %bl,%rbx
    1f09:	f6 44 58 01 20       	testb  $0x20,0x1(%rax,%rbx,2)
    1f0e:	75 e1                	jne    1ef1 <blank_line+0xd>
    1f10:	b8 00 00 00 00       	mov    $0x0,%eax
    1f15:	eb 05                	jmp    1f1c <blank_line+0x38>
    1f17:	b8 01 00 00 00       	mov    $0x1,%eax
    1f1c:	48 83 c4 08          	add    $0x8,%rsp
    1f20:	5b                   	pop    %rbx
    1f21:	5d                   	pop    %rbp
    1f22:	c3                   	retq   

0000000000001f23 <skip>:
    1f23:	f3 0f 1e fa          	endbr64 
    1f27:	53                   	push   %rbx
    1f28:	48 63 15 5d 65 00 00 	movslq 0x655d(%rip),%rdx        # 848c <num_input_strings>
    1f2f:	48 89 d0             	mov    %rdx,%rax
    1f32:	48 c1 e0 04          	shl    $0x4,%rax
    1f36:	48 29 d0             	sub    %rdx,%rax
    1f39:	48 8d 15 60 65 00 00 	lea    0x6560(%rip),%rdx        # 84a0 <input_strings>
    1f40:	48 8d 3c c2          	lea    (%rdx,%rax,8),%rdi
    1f44:	48 8b 15 45 65 00 00 	mov    0x6545(%rip),%rdx        # 8490 <infile>
    1f4b:	be 78 00 00 00       	mov    $0x78,%esi
    1f50:	e8 6b f3 ff ff       	callq  12c0 <fgets@plt>
    1f55:	48 89 c3             	mov    %rax,%rbx
    1f58:	48 85 c0             	test   %rax,%rax
    1f5b:	74 0c                	je     1f69 <skip+0x46>
    1f5d:	48 89 c7             	mov    %rax,%rdi
    1f60:	e8 7f ff ff ff       	callq  1ee4 <blank_line>
    1f65:	85 c0                	test   %eax,%eax
    1f67:	75 bf                	jne    1f28 <skip+0x5>
    1f69:	48 89 d8             	mov    %rbx,%rax
    1f6c:	5b                   	pop    %rbx
    1f6d:	c3                   	retq   

0000000000001f6e <send_msg>:
    1f6e:	f3 0f 1e fa          	endbr64 
    1f72:	41 55                	push   %r13
    1f74:	41 54                	push   %r12
    1f76:	55                   	push   %rbp
    1f77:	53                   	push   %rbx
    1f78:	4c 8d 9c 24 00 c0 ff 	lea    -0x4000(%rsp),%r11
    1f7f:	ff 
    1f80:	48 81 ec 00 10 00 00 	sub    $0x1000,%rsp
    1f87:	48 83 0c 24 00       	orq    $0x0,(%rsp)
    1f8c:	4c 39 dc             	cmp    %r11,%rsp
    1f8f:	75 ef                	jne    1f80 <send_msg+0x12>
    1f91:	48 83 ec 58          	sub    $0x58,%rsp
    1f95:	89 fa                	mov    %edi,%edx
    1f97:	49 89 f4             	mov    %rsi,%r12
    1f9a:	64 48 8b 04 25 28 00 	mov    %fs:0x28,%rax
    1fa1:	00 00 
    1fa3:	48 89 84 24 48 40 00 	mov    %rax,0x4048(%rsp)
    1faa:	00 
    1fab:	31 c0                	xor    %eax,%eax
    1fad:	8b 35 d9 64 00 00    	mov    0x64d9(%rip),%esi        # 848c <num_input_strings>
    1fb3:	8d 46 ff             	lea    -0x1(%rsi),%eax
    1fb6:	48 98                	cltq   
    1fb8:	48 89 c1             	mov    %rax,%rcx
    1fbb:	48 c1 e1 04          	shl    $0x4,%rcx
    1fbf:	48 29 c1             	sub    %rax,%rcx
    1fc2:	48 89 c8             	mov    %rcx,%rax
    1fc5:	48 8d 0d d4 64 00 00 	lea    0x64d4(%rip),%rcx        # 84a0 <input_strings>
    1fcc:	4c 8d 04 c1          	lea    (%rcx,%rax,8),%r8
    1fd0:	48 c7 c1 ff ff ff ff 	mov    $0xffffffffffffffff,%rcx
    1fd7:	b8 00 00 00 00       	mov    $0x0,%eax
    1fdc:	4c 89 c7             	mov    %r8,%rdi
    1fdf:	f2 ae                	repnz scas %es:(%rdi),%al
    1fe1:	48 89 c8             	mov    %rcx,%rax
    1fe4:	48 f7 d0             	not    %rax
    1fe7:	48 83 c0 63          	add    $0x63,%rax
    1feb:	48 3d 00 20 00 00    	cmp    $0x2000,%rax
    1ff1:	0f 87 b3 00 00 00    	ja     20aa <send_msg+0x13c>
    1ff7:	85 d2                	test   %edx,%edx
    1ff9:	0f 84 cb 00 00 00    	je     20ca <send_msg+0x15c>
    1fff:	48 8d 05 cf 26 00 00 	lea    0x26cf(%rip),%rax        # 46d5 <transition_table+0x2f5>
    2006:	48 8d 5c 24 40       	lea    0x40(%rsp),%rbx
    200b:	48 83 ec 08          	sub    $0x8,%rsp
    200f:	41 50                	push   %r8
    2011:	56                   	push   %rsi
    2012:	50                   	push   %rax
    2013:	4c 8d 0d 26 58 00 00 	lea    0x5826(%rip),%r9        # 7840 <authkey>
    201a:	44 8b 05 1f 60 00 00 	mov    0x601f(%rip),%r8d        # 8040 <bomb_id>
    2021:	48 8d 0d b5 26 00 00 	lea    0x26b5(%rip),%rcx        # 46dd <transition_table+0x2fd>
    2028:	ba 00 20 00 00       	mov    $0x2000,%edx
    202d:	be 01 00 00 00       	mov    $0x1,%esi
    2032:	48 89 df             	mov    %rbx,%rdi
    2035:	b8 00 00 00 00       	mov    $0x0,%eax
    203a:	e8 81 f3 ff ff       	callq  13c0 <__sprintf_chk@plt>
    203f:	48 83 c4 20          	add    $0x20,%rsp
    2043:	4c 8d 8c 24 40 20 00 	lea    0x2040(%rsp),%r9
    204a:	00 
    204b:	41 b8 00 00 00 00    	mov    $0x0,%r8d
    2051:	48 89 d9             	mov    %rbx,%rcx
    2054:	48 8d 15 e5 4f 00 00 	lea    0x4fe5(%rip),%rdx        # 7040 <lab>
    205b:	48 8d 35 de 53 00 00 	lea    0x53de(%rip),%rsi        # 7440 <course>
    2062:	48 8d 3d d7 5b 00 00 	lea    0x5bd7(%rip),%rdi        # 7c40 <userid>
    2069:	e8 70 11 00 00       	callq  31de <driver_post>
    206e:	89 c5                	mov    %eax,%ebp
    2070:	48 89 e7             	mov    %rsp,%rdi
    2073:	be 40 00 00 00       	mov    $0x40,%esi
    2078:	e8 e3 f2 ff ff       	callq  1360 <gethostname@plt>
    207d:	41 89 c5             	mov    %eax,%r13d
    2080:	85 c0                	test   %eax,%eax
    2082:	75 52                	jne    20d6 <send_msg+0x168>
    2084:	89 c3                	mov    %eax,%ebx
    2086:	48 63 c3             	movslq %ebx,%rax
    2089:	48 8d 15 10 60 00 00 	lea    0x6010(%rip),%rdx        # 80a0 <host_table>
    2090:	48 8b 3c c2          	mov    (%rdx,%rax,8),%rdi
    2094:	48 85 ff             	test   %rdi,%rdi
    2097:	74 59                	je     20f2 <send_msg+0x184>
    2099:	48 89 e6             	mov    %rsp,%rsi
    209c:	e8 8f f1 ff ff       	callq  1230 <strcasecmp@plt>
    20a1:	85 c0                	test   %eax,%eax
    20a3:	74 47                	je     20ec <send_msg+0x17e>
    20a5:	83 c3 01             	add    $0x1,%ebx
    20a8:	eb dc                	jmp    2086 <send_msg+0x118>
    20aa:	48 8d 35 0f 24 00 00 	lea    0x240f(%rip),%rsi        # 44c0 <transition_table+0xe0>
    20b1:	bf 01 00 00 00       	mov    $0x1,%edi
    20b6:	b8 00 00 00 00       	mov    $0x0,%eax
    20bb:	e8 80 f2 ff ff       	callq  1340 <__printf_chk@plt>
    20c0:	bf 08 00 00 00       	mov    $0x8,%edi
    20c5:	e8 a6 f2 ff ff       	callq  1370 <exit@plt>
    20ca:	48 8d 05 fb 25 00 00 	lea    0x25fb(%rip),%rax        # 46cc <transition_table+0x2ec>
    20d1:	e9 30 ff ff ff       	jmpq   2006 <send_msg+0x98>
    20d6:	48 8d 3d 0b 24 00 00 	lea    0x240b(%rip),%rdi        # 44e8 <transition_table+0x108>
    20dd:	e8 7e f1 ff ff       	callq  1260 <puts@plt>
    20e2:	bf 08 00 00 00       	mov    $0x8,%edi
    20e7:	e8 84 f2 ff ff       	callq  1370 <exit@plt>
    20ec:	41 bd 01 00 00 00    	mov    $0x1,%r13d
    20f2:	41 83 fd 01          	cmp    $0x1,%r13d
    20f6:	74 25                	je     211d <send_msg+0x1af>
    20f8:	85 ed                	test   %ebp,%ebp
    20fa:	78 34                	js     2130 <send_msg+0x1c2>
    20fc:	48 8b 84 24 48 40 00 	mov    0x4048(%rsp),%rax
    2103:	00 
    2104:	64 48 33 04 25 28 00 	xor    %fs:0x28,%rax
    210b:	00 00 
    210d:	75 38                	jne    2147 <send_msg+0x1d9>
    210f:	48 81 c4 58 40 00 00 	add    $0x4058,%rsp
    2116:	5b                   	pop    %rbx
    2117:	5d                   	pop    %rbp
    2118:	41 5c                	pop    %r12
    211a:	41 5d                	pop    %r13
    211c:	c3                   	retq   
    211d:	48 63 db             	movslq %ebx,%rbx
    2120:	48 8d 05 99 26 00 00 	lea    0x2699(%rip),%rax        # 47c0 <secret_tokens>
    2127:	8b 04 98             	mov    (%rax,%rbx,4),%eax
    212a:	41 89 04 24          	mov    %eax,(%r12)
    212e:	eb c8                	jmp    20f8 <send_msg+0x18a>
    2130:	48 8d bc 24 40 20 00 	lea    0x2040(%rsp),%rdi
    2137:	00 
    2138:	e8 23 f1 ff ff       	callq  1260 <puts@plt>
    213d:	bf 00 00 00 00       	mov    $0x0,%edi
    2142:	e8 29 f2 ff ff       	callq  1370 <exit@plt>
    2147:	e8 34 f1 ff ff       	callq  1280 <__stack_chk_fail@plt>

000000000000214c <explode_bomb>:
    214c:	f3 0f 1e fa          	endbr64 
    2150:	55                   	push   %rbp
    2151:	53                   	push   %rbx
    2152:	48 83 ec 68          	sub    $0x68,%rsp
    2156:	64 48 8b 04 25 28 00 	mov    %fs:0x28,%rax
    215d:	00 00 
    215f:	48 89 44 24 58       	mov    %rax,0x58(%rsp)
    2164:	31 c0                	xor    %eax,%eax
    2166:	48 8d 3d 7f 25 00 00 	lea    0x257f(%rip),%rdi        # 46ec <transition_table+0x30c>
    216d:	e8 ee f0 ff ff       	callq  1260 <puts@plt>
    2172:	48 8d 3d 7c 25 00 00 	lea    0x257c(%rip),%rdi        # 46f5 <transition_table+0x315>
    2179:	e8 e2 f0 ff ff       	callq  1260 <puts@plt>
    217e:	48 8d 7c 24 10       	lea    0x10(%rsp),%rdi
    2183:	be 40 00 00 00       	mov    $0x40,%esi
    2188:	e8 d3 f1 ff ff       	callq  1360 <gethostname@plt>
    218d:	85 c0                	test   %eax,%eax
    218f:	75 2a                	jne    21bb <explode_bomb+0x6f>
    2191:	89 c5                	mov    %eax,%ebp
    2193:	89 c3                	mov    %eax,%ebx
    2195:	48 63 c3             	movslq %ebx,%rax
    2198:	48 8d 15 01 5f 00 00 	lea    0x5f01(%rip),%rdx        # 80a0 <host_table>
    219f:	48 8b 3c c2          	mov    (%rdx,%rax,8),%rdi
    21a3:	48 85 ff             	test   %rdi,%rdi
    21a6:	74 2e                	je     21d6 <explode_bomb+0x8a>
    21a8:	48 8d 74 24 10       	lea    0x10(%rsp),%rsi
    21ad:	e8 7e f0 ff ff       	callq  1230 <strcasecmp@plt>
    21b2:	85 c0                	test   %eax,%eax
    21b4:	74 1b                	je     21d1 <explode_bomb+0x85>
    21b6:	83 c3 01             	add    $0x1,%ebx
    21b9:	eb da                	jmp    2195 <explode_bomb+0x49>
    21bb:	48 8d 3d 26 23 00 00 	lea    0x2326(%rip),%rdi        # 44e8 <transition_table+0x108>
    21c2:	e8 99 f0 ff ff       	callq  1260 <puts@plt>
    21c7:	bf 08 00 00 00       	mov    $0x8,%edi
    21cc:	e8 9f f1 ff ff       	callq  1370 <exit@plt>
    21d1:	bd 01 00 00 00       	mov    $0x1,%ebp
    21d6:	c7 44 24 0c 00 00 00 	movl   $0x0,0xc(%rsp)
    21dd:	00 
    21de:	48 8d 74 24 0c       	lea    0xc(%rsp),%rsi
    21e3:	bf 00 00 00 00       	mov    $0x0,%edi
    21e8:	e8 81 fd ff ff       	callq  1f6e <send_msg>
    21ed:	48 63 db             	movslq %ebx,%rbx
    21f0:	48 8d 05 c9 25 00 00 	lea    0x25c9(%rip),%rax        # 47c0 <secret_tokens>
    21f7:	8b 4c 24 0c          	mov    0xc(%rsp),%ecx
    21fb:	39 0c 98             	cmp    %ecx,(%rax,%rbx,4)
    21fe:	75 04                	jne    2204 <explode_bomb+0xb8>
    2200:	85 ed                	test   %ebp,%ebp
    2202:	75 20                	jne    2224 <explode_bomb+0xd8>
    2204:	48 8d 35 05 23 00 00 	lea    0x2305(%rip),%rsi        # 4510 <transition_table+0x130>
    220b:	bf 01 00 00 00       	mov    $0x1,%edi
    2210:	b8 00 00 00 00       	mov    $0x0,%eax
    2215:	e8 26 f1 ff ff       	callq  1340 <__printf_chk@plt>
    221a:	bf 08 00 00 00       	mov    $0x8,%edi
    221f:	e8 4c f1 ff ff       	callq  1370 <exit@plt>
    2224:	48 8d 3d 2d 23 00 00 	lea    0x232d(%rip),%rdi        # 4558 <transition_table+0x178>
    222b:	e8 30 f0 ff ff       	callq  1260 <puts@plt>
    2230:	bf 08 00 00 00       	mov    $0x8,%edi
    2235:	e8 36 f1 ff ff       	callq  1370 <exit@plt>

000000000000223a <read_six_numbers>:
    223a:	f3 0f 1e fa          	endbr64                         # %rsiphase_224
    223e:	48 83 ec 08          	sub    $0x8,%rsp                # 8
    2242:	48 89 f2             	mov    %rsi,%rdx                # %rdx = %rdx
                                                                    # 
    2245:	48 8d 4e 04          	lea    0x4(%rsi),%rcx           # %rcx =  + 4
    2249:	48 8d 46 14          	lea    0x14(%rsi),%rax          # %rax =  + 20
    224d:	50                   	push   %rax                     #  -= 8%rax
    224e:	48 8d 46 10          	lea    0x10(%rsi),%rax          # %rax =  + 16
    2252:	50                   	push   %rax                     #  -= 8%rax
    2253:	4c 8d 4e 0c          	lea    0xc(%rsi),%r9            # %r9 =  + 12
    2257:	4c 8d 46 08          	lea    0x8(%rsi),%r8            # %r8 =  + 8
    225b:	48 8d 35 aa 24 00 00 	lea    0x24aa(%rip),%rsi        # 470c <transition_table+0x32c>
                                                                    # "%d %d %d %d %d %d"

    2262:	b8 00 00 00 00       	mov    $0x0,%eax                # %rax0
                                                                    # %rdi
    2267:	e8 c4 f0 ff ff       	callq  1330 <__isoc99_sscanf@plt>   # 
                                                                        # %rsp%rsp+32=a[0]6*4

    226c:	48 83 c4 10          	add    $0x10,%rsp                   # 16
    2270:	83 f8 05             	cmp    $0x5,%eax                    # sscanf5
    2273:	7e 05                	jle    227a <read_six_numbers+0x40> # 5<= %eax
                                                                        # 5sscanf6<=5
    2275:	48 83 c4 08          	add    $0x8,%rsp                    # 
    2279:	c3                   	retq   
    227a:	e8 cd fe ff ff       	callq  214c <explode_bomb>

000000000000227f <read_line>:
    227f:	f3 0f 1e fa          	endbr64 
    2283:	48 83 ec 08          	sub    $0x8,%rsp
    2287:	b8 00 00 00 00       	mov    $0x0,%eax
    228c:	e8 92 fc ff ff       	callq  1f23 <skip>
    2291:	48 85 c0             	test   %rax,%rax
    2294:	74 72                	je     2308 <read_line+0x89>
    2296:	8b 15 f0 61 00 00    	mov    0x61f0(%rip),%edx        # 848c <num_input_strings>
    229c:	48 63 ca             	movslq %edx,%rcx
    229f:	48 89 c8             	mov    %rcx,%rax
    22a2:	48 c1 e0 04          	shl    $0x4,%rax
    22a6:	48 29 c8             	sub    %rcx,%rax
    22a9:	48 8d 0d f0 61 00 00 	lea    0x61f0(%rip),%rcx        # 84a0 <input_strings>
    22b0:	48 8d 34 c1          	lea    (%rcx,%rax,8),%rsi
    22b4:	48 c7 c1 ff ff ff ff 	mov    $0xffffffffffffffff,%rcx
    22bb:	b8 00 00 00 00       	mov    $0x0,%eax
    22c0:	48 89 f7             	mov    %rsi,%rdi
    22c3:	f2 ae                	repnz scas %es:(%rdi),%al
    22c5:	48 f7 d1             	not    %rcx
    22c8:	48 83 e9 01          	sub    $0x1,%rcx
    22cc:	83 f9 76             	cmp    $0x76,%ecx
    22cf:	0f 8f ab 00 00 00    	jg     2380 <read_line+0x101>
    22d5:	83 e9 01             	sub    $0x1,%ecx
    22d8:	48 63 c9             	movslq %ecx,%rcx
    22db:	48 63 fa             	movslq %edx,%rdi
    22de:	48 89 f8             	mov    %rdi,%rax
    22e1:	48 c1 e0 04          	shl    $0x4,%rax
    22e5:	48 29 f8             	sub    %rdi,%rax
    22e8:	48 8d 3d b1 61 00 00 	lea    0x61b1(%rip),%rdi        # 84a0 <input_strings>
    22ef:	48 8d 04 c7          	lea    (%rdi,%rax,8),%rax
    22f3:	c6 04 08 00          	movb   $0x0,(%rax,%rcx,1)
    22f7:	83 c2 01             	add    $0x1,%edx
    22fa:	89 15 8c 61 00 00    	mov    %edx,0x618c(%rip)        # 848c <num_input_strings>
    2300:	48 89 f0             	mov    %rsi,%rax
    2303:	48 83 c4 08          	add    $0x8,%rsp
    2307:	c3                   	retq   
    2308:	48 8b 05 61 61 00 00 	mov    0x6161(%rip),%rax        # 8470 <stdin@@GLIBC_2.2.5>
    230f:	48 39 05 7a 61 00 00 	cmp    %rax,0x617a(%rip)        # 8490 <infile>
    2316:	74 1b                	je     2333 <read_line+0xb4>
    2318:	48 8d 3d 1d 24 00 00 	lea    0x241d(%rip),%rdi        # 473c <transition_table+0x35c>
    231f:	e8 ec ee ff ff       	callq  1210 <getenv@plt>
    2324:	48 85 c0             	test   %rax,%rax
    2327:	74 20                	je     2349 <read_line+0xca>
    2329:	bf 00 00 00 00       	mov    $0x0,%edi
    232e:	e8 3d f0 ff ff       	callq  1370 <exit@plt>
    2333:	48 8d 3d e4 23 00 00 	lea    0x23e4(%rip),%rdi        # 471e <transition_table+0x33e>
    233a:	e8 21 ef ff ff       	callq  1260 <puts@plt>
    233f:	bf 08 00 00 00       	mov    $0x8,%edi
    2344:	e8 27 f0 ff ff       	callq  1370 <exit@plt>
    2349:	48 8b 05 20 61 00 00 	mov    0x6120(%rip),%rax        # 8470 <stdin@@GLIBC_2.2.5>
    2350:	48 89 05 39 61 00 00 	mov    %rax,0x6139(%rip)        # 8490 <infile>
    2357:	b8 00 00 00 00       	mov    $0x0,%eax
    235c:	e8 c2 fb ff ff       	callq  1f23 <skip>
    2361:	48 85 c0             	test   %rax,%rax
    2364:	0f 85 2c ff ff ff    	jne    2296 <read_line+0x17>
    236a:	48 8d 3d ad 23 00 00 	lea    0x23ad(%rip),%rdi        # 471e <transition_table+0x33e>
    2371:	e8 ea ee ff ff       	callq  1260 <puts@plt>
    2376:	bf 00 00 00 00       	mov    $0x0,%edi
    237b:	e8 f0 ef ff ff       	callq  1370 <exit@plt>
    2380:	48 8d 3d c0 23 00 00 	lea    0x23c0(%rip),%rdi        # 4747 <transition_table+0x367>
    2387:	e8 d4 ee ff ff       	callq  1260 <puts@plt>
    238c:	8b 05 fa 60 00 00    	mov    0x60fa(%rip),%eax        # 848c <num_input_strings>
    2392:	8d 50 01             	lea    0x1(%rax),%edx
    2395:	89 15 f1 60 00 00    	mov    %edx,0x60f1(%rip)        # 848c <num_input_strings>
    239b:	48 98                	cltq   
    239d:	48 6b c0 78          	imul   $0x78,%rax,%rax
    23a1:	48 8d 15 f8 60 00 00 	lea    0x60f8(%rip),%rdx        # 84a0 <input_strings>
    23a8:	48 be 2a 2a 2a 74 72 	movabs $0x636e7572742a2a2a,%rsi
    23af:	75 6e 63 
    23b2:	48 bf 61 74 65 64 2a 	movabs $0x2a2a2a64657461,%rdi
    23b9:	2a 2a 00 
    23bc:	48 89 34 02          	mov    %rsi,(%rdx,%rax,1)
    23c0:	48 89 7c 02 08       	mov    %rdi,0x8(%rdx,%rax,1)
    23c5:	e8 82 fd ff ff       	callq  214c <explode_bomb>

00000000000023ca <phase_defused>:
    23ca:	f3 0f 1e fa          	endbr64 
    23ce:	41 54                	push   %r12
    23d0:	55                   	push   %rbp
    23d1:	53                   	push   %rbx
    23d2:	48 83 ec 50          	sub    $0x50,%rsp
    23d6:	49 89 fc             	mov    %rdi,%r12
    23d9:	64 48 8b 04 25 28 00 	mov    %fs:0x28,%rax
    23e0:	00 00 
    23e2:	48 89 44 24 48       	mov    %rax,0x48(%rsp)
    23e7:	31 c0                	xor    %eax,%eax
    23e9:	48 89 e7             	mov    %rsp,%rdi
    23ec:	be 40 00 00 00       	mov    $0x40,%esi
    23f1:	e8 6a ef ff ff       	callq  1360 <gethostname@plt>
    23f6:	85 c0                	test   %eax,%eax
    23f8:	75 06                	jne    2400 <phase_defused+0x36>
    23fa:	89 c5                	mov    %eax,%ebp
    23fc:	89 c3                	mov    %eax,%ebx
    23fe:	eb 19                	jmp    2419 <phase_defused+0x4f>
    2400:	48 8d 3d e1 20 00 00 	lea    0x20e1(%rip),%rdi        # 44e8 <transition_table+0x108>
    2407:	e8 54 ee ff ff       	callq  1260 <puts@plt>
    240c:	bf 08 00 00 00       	mov    $0x8,%edi
    2411:	e8 5a ef ff ff       	callq  1370 <exit@plt>
    2416:	83 c3 01             	add    $0x1,%ebx
    2419:	48 63 c3             	movslq %ebx,%rax
    241c:	48 8d 15 7d 5c 00 00 	lea    0x5c7d(%rip),%rdx        # 80a0 <host_table>
    2423:	48 8b 3c c2          	mov    (%rdx,%rax,8),%rdi
    2427:	48 85 ff             	test   %rdi,%rdi
    242a:	74 11                	je     243d <phase_defused+0x73>
    242c:	48 89 e6             	mov    %rsp,%rsi
    242f:	e8 fc ed ff ff       	callq  1230 <strcasecmp@plt>
    2434:	85 c0                	test   %eax,%eax
    2436:	75 de                	jne    2416 <phase_defused+0x4c>
    2438:	bd 01 00 00 00       	mov    $0x1,%ebp
    243d:	41 c7 04 24 00 00 00 	movl   $0x0,(%r12)
    2444:	00 
    2445:	4c 89 e6             	mov    %r12,%rsi
    2448:	bf 01 00 00 00       	mov    $0x1,%edi
    244d:	e8 1c fb ff ff       	callq  1f6e <send_msg>
    2452:	48 63 db             	movslq %ebx,%rbx
    2455:	48 8d 05 64 23 00 00 	lea    0x2364(%rip),%rax        # 47c0 <secret_tokens>
    245c:	8b 04 98             	mov    (%rax,%rbx,4),%eax
    245f:	41 39 04 24          	cmp    %eax,(%r12)
    2463:	75 2a                	jne    248f <phase_defused+0xc5>
    2465:	85 ed                	test   %ebp,%ebp
    2467:	74 26                	je     248f <phase_defused+0xc5>
    2469:	83 3d 1c 60 00 00 06 	cmpl   $0x6,0x601c(%rip)        # 848c <num_input_strings>
    2470:	74 3d                	je     24af <phase_defused+0xe5>
    2472:	48 8b 44 24 48       	mov    0x48(%rsp),%rax
    2477:	64 48 33 04 25 28 00 	xor    %fs:0x28,%rax
    247e:	00 00 
    2480:	0f 85 87 00 00 00    	jne    250d <phase_defused+0x143>
    2486:	48 83 c4 50          	add    $0x50,%rsp
    248a:	5b                   	pop    %rbx
    248b:	5d                   	pop    %rbp
    248c:	41 5c                	pop    %r12
    248e:	c3                   	retq   
    248f:	48 8d 35 7a 20 00 00 	lea    0x207a(%rip),%rsi        # 4510 <transition_table+0x130>
    2496:	bf 01 00 00 00       	mov    $0x1,%edi
    249b:	b8 00 00 00 00       	mov    $0x0,%eax
    24a0:	e8 9b ee ff ff       	callq  1340 <__printf_chk@plt>
    24a5:	bf 08 00 00 00       	mov    $0x8,%edi
    24aa:	e8 c1 ee ff ff       	callq  1370 <exit@plt>
    24af:	e8 a4 f1 ff ff       	callq  1658 <abracadabra>
    24b4:	85 c0                	test   %eax,%eax
    24b6:	75 1a                	jne    24d2 <phase_defused+0x108>
    24b8:	48 8d 3d 61 21 00 00 	lea    0x2161(%rip),%rdi        # 4620 <transition_table+0x240>
    24bf:	e8 9c ed ff ff       	callq  1260 <puts@plt>
    24c4:	48 8d 3d 85 21 00 00 	lea    0x2185(%rip),%rdi        # 4650 <transition_table+0x270>
    24cb:	e8 90 ed ff ff       	callq  1260 <puts@plt>
    24d0:	eb a0                	jmp    2472 <phase_defused+0xa8>
    24d2:	e8 32 f2 ff ff       	callq  1709 <alohomora>
    24d7:	85 c0                	test   %eax,%eax
    24d9:	74 24                	je     24ff <phase_defused+0x135>
    24db:	48 8d 3d 9e 20 00 00 	lea    0x209e(%rip),%rdi        # 4580 <transition_table+0x1a0>
    24e2:	e8 79 ed ff ff       	callq  1260 <puts@plt>
    24e7:	48 8d 3d ba 20 00 00 	lea    0x20ba(%rip),%rdi        # 45a8 <transition_table+0x1c8>
    24ee:	e8 6d ed ff ff       	callq  1260 <puts@plt>
    24f3:	b8 00 00 00 00       	mov    $0x0,%eax
    24f8:	e8 0e f7 ff ff       	callq  1c0b <secret_phase>
    24fd:	eb b9                	jmp    24b8 <phase_defused+0xee>
    24ff:	48 8d 3d da 20 00 00 	lea    0x20da(%rip),%rdi        # 45e0 <transition_table+0x200>
    2506:	e8 55 ed ff ff       	callq  1260 <puts@plt>
    250b:	eb ab                	jmp    24b8 <phase_defused+0xee>
    250d:	e8 6e ed ff ff       	callq  1280 <__stack_chk_fail@plt>

0000000000002512 <rio_readinitb>:
    2512:	89 37                	mov    %esi,(%rdi)
    2514:	c7 47 04 00 00 00 00 	movl   $0x0,0x4(%rdi)
    251b:	48 8d 47 10          	lea    0x10(%rdi),%rax
    251f:	48 89 47 08          	mov    %rax,0x8(%rdi)
    2523:	c3                   	retq   

0000000000002524 <sigalrm_handler>:
    2524:	f3 0f 1e fa          	endbr64 
    2528:	50                   	push   %rax
    2529:	58                   	pop    %rax
    252a:	48 83 ec 08          	sub    $0x8,%rsp
    252e:	b9 00 00 00 00       	mov    $0x0,%ecx
    2533:	48 8d 15 a6 22 00 00 	lea    0x22a6(%rip),%rdx        # 47e0 <secret_tokens+0x20>
    253a:	be 01 00 00 00       	mov    $0x1,%esi
    253f:	48 8b 3d 3a 5f 00 00 	mov    0x5f3a(%rip),%rdi        # 8480 <stderr@@GLIBC_2.2.5>
    2546:	b8 00 00 00 00       	mov    $0x0,%eax
    254b:	e8 40 ee ff ff       	callq  1390 <__fprintf_chk@plt>
    2550:	bf 01 00 00 00       	mov    $0x1,%edi
    2555:	e8 16 ee ff ff       	callq  1370 <exit@plt>

000000000000255a <rio_writen>:
    255a:	41 55                	push   %r13
    255c:	41 54                	push   %r12
    255e:	55                   	push   %rbp
    255f:	53                   	push   %rbx
    2560:	48 83 ec 08          	sub    $0x8,%rsp
    2564:	41 89 fc             	mov    %edi,%r12d
    2567:	48 89 f5             	mov    %rsi,%rbp
    256a:	49 89 d5             	mov    %rdx,%r13
    256d:	48 89 d3             	mov    %rdx,%rbx
    2570:	eb 06                	jmp    2578 <rio_writen+0x1e>
    2572:	48 29 c3             	sub    %rax,%rbx
    2575:	48 01 c5             	add    %rax,%rbp
    2578:	48 85 db             	test   %rbx,%rbx
    257b:	74 24                	je     25a1 <rio_writen+0x47>
    257d:	48 89 da             	mov    %rbx,%rdx
    2580:	48 89 ee             	mov    %rbp,%rsi
    2583:	44 89 e7             	mov    %r12d,%edi
    2586:	e8 e5 ec ff ff       	callq  1270 <write@plt>
    258b:	48 85 c0             	test   %rax,%rax
    258e:	7f e2                	jg     2572 <rio_writen+0x18>
    2590:	e8 ab ec ff ff       	callq  1240 <__errno_location@plt>
    2595:	83 38 04             	cmpl   $0x4,(%rax)
    2598:	75 15                	jne    25af <rio_writen+0x55>
    259a:	b8 00 00 00 00       	mov    $0x0,%eax
    259f:	eb d1                	jmp    2572 <rio_writen+0x18>
    25a1:	4c 89 e8             	mov    %r13,%rax
    25a4:	48 83 c4 08          	add    $0x8,%rsp
    25a8:	5b                   	pop    %rbx
    25a9:	5d                   	pop    %rbp
    25aa:	41 5c                	pop    %r12
    25ac:	41 5d                	pop    %r13
    25ae:	c3                   	retq   
    25af:	48 c7 c0 ff ff ff ff 	mov    $0xffffffffffffffff,%rax
    25b6:	eb ec                	jmp    25a4 <rio_writen+0x4a>

00000000000025b8 <rio_read>:
    25b8:	41 55                	push   %r13
    25ba:	41 54                	push   %r12
    25bc:	55                   	push   %rbp
    25bd:	53                   	push   %rbx
    25be:	48 83 ec 08          	sub    $0x8,%rsp
    25c2:	48 89 fb             	mov    %rdi,%rbx
    25c5:	49 89 f5             	mov    %rsi,%r13
    25c8:	49 89 d4             	mov    %rdx,%r12
    25cb:	eb 17                	jmp    25e4 <rio_read+0x2c>
    25cd:	e8 6e ec ff ff       	callq  1240 <__errno_location@plt>
    25d2:	83 38 04             	cmpl   $0x4,(%rax)
    25d5:	74 0d                	je     25e4 <rio_read+0x2c>
    25d7:	48 c7 c0 ff ff ff ff 	mov    $0xffffffffffffffff,%rax
    25de:	eb 54                	jmp    2634 <rio_read+0x7c>
    25e0:	48 89 6b 08          	mov    %rbp,0x8(%rbx)
    25e4:	8b 6b 04             	mov    0x4(%rbx),%ebp
    25e7:	85 ed                	test   %ebp,%ebp
    25e9:	7f 23                	jg     260e <rio_read+0x56>
    25eb:	48 8d 6b 10          	lea    0x10(%rbx),%rbp
    25ef:	8b 3b                	mov    (%rbx),%edi
    25f1:	ba 00 20 00 00       	mov    $0x2000,%edx
    25f6:	48 89 ee             	mov    %rbp,%rsi
    25f9:	e8 b2 ec ff ff       	callq  12b0 <read@plt>
    25fe:	89 43 04             	mov    %eax,0x4(%rbx)
    2601:	85 c0                	test   %eax,%eax
    2603:	78 c8                	js     25cd <rio_read+0x15>
    2605:	75 d9                	jne    25e0 <rio_read+0x28>
    2607:	b8 00 00 00 00       	mov    $0x0,%eax
    260c:	eb 26                	jmp    2634 <rio_read+0x7c>
    260e:	89 e8                	mov    %ebp,%eax
    2610:	4c 39 e0             	cmp    %r12,%rax
    2613:	72 03                	jb     2618 <rio_read+0x60>
    2615:	44 89 e5             	mov    %r12d,%ebp
    2618:	4c 63 e5             	movslq %ebp,%r12
    261b:	48 8b 73 08          	mov    0x8(%rbx),%rsi
    261f:	4c 89 e2             	mov    %r12,%rdx
    2622:	4c 89 ef             	mov    %r13,%rdi
    2625:	e8 d6 ec ff ff       	callq  1300 <memcpy@plt>
    262a:	4c 01 63 08          	add    %r12,0x8(%rbx)
    262e:	29 6b 04             	sub    %ebp,0x4(%rbx)
    2631:	4c 89 e0             	mov    %r12,%rax
    2634:	48 83 c4 08          	add    $0x8,%rsp
    2638:	5b                   	pop    %rbx
    2639:	5d                   	pop    %rbp
    263a:	41 5c                	pop    %r12
    263c:	41 5d                	pop    %r13
    263e:	c3                   	retq   

000000000000263f <rio_readlineb>:
    263f:	41 55                	push   %r13
    2641:	41 54                	push   %r12
    2643:	55                   	push   %rbp
    2644:	53                   	push   %rbx
    2645:	48 83 ec 18          	sub    $0x18,%rsp
    2649:	49 89 fd             	mov    %rdi,%r13
    264c:	48 89 f5             	mov    %rsi,%rbp
    264f:	49 89 d4             	mov    %rdx,%r12
    2652:	64 48 8b 04 25 28 00 	mov    %fs:0x28,%rax
    2659:	00 00 
    265b:	48 89 44 24 08       	mov    %rax,0x8(%rsp)
    2660:	31 c0                	xor    %eax,%eax
    2662:	bb 01 00 00 00       	mov    $0x1,%ebx
    2667:	eb 18                	jmp    2681 <rio_readlineb+0x42>
    2669:	85 c0                	test   %eax,%eax
    266b:	75 65                	jne    26d2 <rio_readlineb+0x93>
    266d:	48 83 fb 01          	cmp    $0x1,%rbx
    2671:	75 3d                	jne    26b0 <rio_readlineb+0x71>
    2673:	b8 00 00 00 00       	mov    $0x0,%eax
    2678:	eb 3d                	jmp    26b7 <rio_readlineb+0x78>
    267a:	48 83 c3 01          	add    $0x1,%rbx
    267e:	48 89 d5             	mov    %rdx,%rbp
    2681:	4c 39 e3             	cmp    %r12,%rbx
    2684:	73 2a                	jae    26b0 <rio_readlineb+0x71>
    2686:	48 8d 74 24 07       	lea    0x7(%rsp),%rsi
    268b:	ba 01 00 00 00       	mov    $0x1,%edx
    2690:	4c 89 ef             	mov    %r13,%rdi
    2693:	e8 20 ff ff ff       	callq  25b8 <rio_read>
    2698:	83 f8 01             	cmp    $0x1,%eax
    269b:	75 cc                	jne    2669 <rio_readlineb+0x2a>
    269d:	48 8d 55 01          	lea    0x1(%rbp),%rdx
    26a1:	0f b6 44 24 07       	movzbl 0x7(%rsp),%eax
    26a6:	88 45 00             	mov    %al,0x0(%rbp)
    26a9:	3c 0a                	cmp    $0xa,%al
    26ab:	75 cd                	jne    267a <rio_readlineb+0x3b>
    26ad:	48 89 d5             	mov    %rdx,%rbp
    26b0:	c6 45 00 00          	movb   $0x0,0x0(%rbp)
    26b4:	48 89 d8             	mov    %rbx,%rax
    26b7:	48 8b 4c 24 08       	mov    0x8(%rsp),%rcx
    26bc:	64 48 33 0c 25 28 00 	xor    %fs:0x28,%rcx
    26c3:	00 00 
    26c5:	75 14                	jne    26db <rio_readlineb+0x9c>
    26c7:	48 83 c4 18          	add    $0x18,%rsp
    26cb:	5b                   	pop    %rbx
    26cc:	5d                   	pop    %rbp
    26cd:	41 5c                	pop    %r12
    26cf:	41 5d                	pop    %r13
    26d1:	c3                   	retq   
    26d2:	48 c7 c0 ff ff ff ff 	mov    $0xffffffffffffffff,%rax
    26d9:	eb dc                	jmp    26b7 <rio_readlineb+0x78>
    26db:	e8 a0 eb ff ff       	callq  1280 <__stack_chk_fail@plt>

00000000000026e0 <urlencode>:
    26e0:	41 54                	push   %r12
    26e2:	55                   	push   %rbp
    26e3:	53                   	push   %rbx
    26e4:	48 83 ec 10          	sub    $0x10,%rsp
    26e8:	48 89 fb             	mov    %rdi,%rbx
    26eb:	48 89 f5             	mov    %rsi,%rbp
    26ee:	64 48 8b 04 25 28 00 	mov    %fs:0x28,%rax
    26f5:	00 00 
    26f7:	48 89 44 24 08       	mov    %rax,0x8(%rsp)
    26fc:	31 c0                	xor    %eax,%eax
    26fe:	48 c7 c1 ff ff ff ff 	mov    $0xffffffffffffffff,%rcx
    2705:	f2 ae                	repnz scas %es:(%rdi),%al
    2707:	48 f7 d1             	not    %rcx
    270a:	8d 41 ff             	lea    -0x1(%rcx),%eax
    270d:	eb 0f                	jmp    271e <urlencode+0x3e>
    270f:	44 88 45 00          	mov    %r8b,0x0(%rbp)
    2713:	48 8d 6d 01          	lea    0x1(%rbp),%rbp
    2717:	48 83 c3 01          	add    $0x1,%rbx
    271b:	44 89 e0             	mov    %r12d,%eax
    271e:	44 8d 60 ff          	lea    -0x1(%rax),%r12d
    2722:	85 c0                	test   %eax,%eax
    2724:	0f 84 a8 00 00 00    	je     27d2 <urlencode+0xf2>
    272a:	44 0f b6 03          	movzbl (%rbx),%r8d
    272e:	41 80 f8 2a          	cmp    $0x2a,%r8b
    2732:	0f 94 c2             	sete   %dl
    2735:	41 80 f8 2d          	cmp    $0x2d,%r8b
    2739:	0f 94 c0             	sete   %al
    273c:	08 c2                	or     %al,%dl
    273e:	75 cf                	jne    270f <urlencode+0x2f>
    2740:	41 80 f8 2e          	cmp    $0x2e,%r8b
    2744:	74 c9                	je     270f <urlencode+0x2f>
    2746:	41 80 f8 5f          	cmp    $0x5f,%r8b
    274a:	74 c3                	je     270f <urlencode+0x2f>
    274c:	41 8d 40 d0          	lea    -0x30(%r8),%eax
    2750:	3c 09                	cmp    $0x9,%al
    2752:	76 bb                	jbe    270f <urlencode+0x2f>
    2754:	41 8d 40 bf          	lea    -0x41(%r8),%eax
    2758:	3c 19                	cmp    $0x19,%al
    275a:	76 b3                	jbe    270f <urlencode+0x2f>
    275c:	41 8d 40 9f          	lea    -0x61(%r8),%eax
    2760:	3c 19                	cmp    $0x19,%al
    2762:	76 ab                	jbe    270f <urlencode+0x2f>
    2764:	41 80 f8 20          	cmp    $0x20,%r8b
    2768:	74 56                	je     27c0 <urlencode+0xe0>
    276a:	41 8d 40 e0          	lea    -0x20(%r8),%eax
    276e:	3c 5f                	cmp    $0x5f,%al
    2770:	0f 96 c2             	setbe  %dl
    2773:	41 80 f8 09          	cmp    $0x9,%r8b
    2777:	0f 94 c0             	sete   %al
    277a:	08 c2                	or     %al,%dl
    277c:	74 4f                	je     27cd <urlencode+0xed>
    277e:	48 89 e7             	mov    %rsp,%rdi
    2781:	45 0f b6 c0          	movzbl %r8b,%r8d
    2785:	48 8d 0d 09 21 00 00 	lea    0x2109(%rip),%rcx        # 4895 <secret_tokens+0xd5>
    278c:	ba 08 00 00 00       	mov    $0x8,%edx
    2791:	be 01 00 00 00       	mov    $0x1,%esi
    2796:	b8 00 00 00 00       	mov    $0x0,%eax
    279b:	e8 20 ec ff ff       	callq  13c0 <__sprintf_chk@plt>
    27a0:	0f b6 04 24          	movzbl (%rsp),%eax
    27a4:	88 45 00             	mov    %al,0x0(%rbp)
    27a7:	0f b6 44 24 01       	movzbl 0x1(%rsp),%eax
    27ac:	88 45 01             	mov    %al,0x1(%rbp)
    27af:	0f b6 44 24 02       	movzbl 0x2(%rsp),%eax
    27b4:	88 45 02             	mov    %al,0x2(%rbp)
    27b7:	48 8d 6d 03          	lea    0x3(%rbp),%rbp
    27bb:	e9 57 ff ff ff       	jmpq   2717 <urlencode+0x37>
    27c0:	c6 45 00 2b          	movb   $0x2b,0x0(%rbp)
    27c4:	48 8d 6d 01          	lea    0x1(%rbp),%rbp
    27c8:	e9 4a ff ff ff       	jmpq   2717 <urlencode+0x37>
    27cd:	b8 ff ff ff ff       	mov    $0xffffffff,%eax
    27d2:	48 8b 74 24 08       	mov    0x8(%rsp),%rsi
    27d7:	64 48 33 34 25 28 00 	xor    %fs:0x28,%rsi
    27de:	00 00 
    27e0:	75 09                	jne    27eb <urlencode+0x10b>
    27e2:	48 83 c4 10          	add    $0x10,%rsp
    27e6:	5b                   	pop    %rbx
    27e7:	5d                   	pop    %rbp
    27e8:	41 5c                	pop    %r12
    27ea:	c3                   	retq   
    27eb:	e8 90 ea ff ff       	callq  1280 <__stack_chk_fail@plt>

00000000000027f0 <submitr>:
    27f0:	f3 0f 1e fa          	endbr64 
    27f4:	41 57                	push   %r15
    27f6:	41 56                	push   %r14
    27f8:	41 55                	push   %r13
    27fa:	41 54                	push   %r12
    27fc:	55                   	push   %rbp
    27fd:	53                   	push   %rbx
    27fe:	4c 8d 9c 24 00 60 ff 	lea    -0xa000(%rsp),%r11
    2805:	ff 
    2806:	48 81 ec 00 10 00 00 	sub    $0x1000,%rsp
    280d:	48 83 0c 24 00       	orq    $0x0,(%rsp)
    2812:	4c 39 dc             	cmp    %r11,%rsp
    2815:	75 ef                	jne    2806 <submitr+0x16>
    2817:	48 83 ec 68          	sub    $0x68,%rsp
    281b:	49 89 fc             	mov    %rdi,%r12
    281e:	89 74 24 1c          	mov    %esi,0x1c(%rsp)
    2822:	48 89 54 24 08       	mov    %rdx,0x8(%rsp)
    2827:	49 89 cd             	mov    %rcx,%r13
    282a:	4c 89 44 24 10       	mov    %r8,0x10(%rsp)
    282f:	4d 89 ce             	mov    %r9,%r14
    2832:	48 8b ac 24 a0 a0 00 	mov    0xa0a0(%rsp),%rbp
    2839:	00 
    283a:	64 48 8b 04 25 28 00 	mov    %fs:0x28,%rax
    2841:	00 00 
    2843:	48 89 84 24 58 a0 00 	mov    %rax,0xa058(%rsp)
    284a:	00 
    284b:	31 c0                	xor    %eax,%eax
    284d:	c7 44 24 2c 00 00 00 	movl   $0x0,0x2c(%rsp)
    2854:	00 
    2855:	ba 00 00 00 00       	mov    $0x0,%edx
    285a:	be 01 00 00 00       	mov    $0x1,%esi
    285f:	bf 02 00 00 00       	mov    $0x2,%edi
    2864:	e8 67 eb ff ff       	callq  13d0 <socket@plt>
    2869:	85 c0                	test   %eax,%eax
    286b:	0f 88 a5 02 00 00    	js     2b16 <submitr+0x326>
    2871:	89 c3                	mov    %eax,%ebx
    2873:	4c 89 e7             	mov    %r12,%rdi
    2876:	e8 65 ea ff ff       	callq  12e0 <gethostbyname@plt>
    287b:	48 85 c0             	test   %rax,%rax
    287e:	0f 84 de 02 00 00    	je     2b62 <submitr+0x372>
    2884:	4c 8d 7c 24 30       	lea    0x30(%rsp),%r15
    2889:	48 c7 44 24 30 00 00 	movq   $0x0,0x30(%rsp)
    2890:	00 00 
    2892:	48 c7 44 24 38 00 00 	movq   $0x0,0x38(%rsp)
    2899:	00 00 
    289b:	66 c7 44 24 30 02 00 	movw   $0x2,0x30(%rsp)
    28a2:	48 63 50 14          	movslq 0x14(%rax),%rdx
    28a6:	48 8b 40 18          	mov    0x18(%rax),%rax
    28aa:	48 8b 30             	mov    (%rax),%rsi
    28ad:	48 8d 7c 24 34       	lea    0x34(%rsp),%rdi
    28b2:	b9 0c 00 00 00       	mov    $0xc,%ecx
    28b7:	e8 34 ea ff ff       	callq  12f0 <__memmove_chk@plt>
    28bc:	0f b7 74 24 1c       	movzwl 0x1c(%rsp),%esi
    28c1:	66 c1 c6 08          	rol    $0x8,%si
    28c5:	66 89 74 24 32       	mov    %si,0x32(%rsp)
    28ca:	ba 10 00 00 00       	mov    $0x10,%edx
    28cf:	4c 89 fe             	mov    %r15,%rsi
    28d2:	89 df                	mov    %ebx,%edi
    28d4:	e8 a7 ea ff ff       	callq  1380 <connect@plt>
    28d9:	85 c0                	test   %eax,%eax
    28db:	0f 88 f7 02 00 00    	js     2bd8 <submitr+0x3e8>
    28e1:	48 c7 c6 ff ff ff ff 	mov    $0xffffffffffffffff,%rsi
    28e8:	b8 00 00 00 00       	mov    $0x0,%eax
    28ed:	48 89 f1             	mov    %rsi,%rcx
    28f0:	4c 89 f7             	mov    %r14,%rdi
    28f3:	f2 ae                	repnz scas %es:(%rdi),%al
    28f5:	48 89 ca             	mov    %rcx,%rdx
    28f8:	48 f7 d2             	not    %rdx
    28fb:	48 89 f1             	mov    %rsi,%rcx
    28fe:	48 8b 7c 24 08       	mov    0x8(%rsp),%rdi
    2903:	f2 ae                	repnz scas %es:(%rdi),%al
    2905:	48 f7 d1             	not    %rcx
    2908:	49 89 c8             	mov    %rcx,%r8
    290b:	48 89 f1             	mov    %rsi,%rcx
    290e:	4c 89 ef             	mov    %r13,%rdi
    2911:	f2 ae                	repnz scas %es:(%rdi),%al
    2913:	48 f7 d1             	not    %rcx
    2916:	4d 8d 44 08 fe       	lea    -0x2(%r8,%rcx,1),%r8
    291b:	48 89 f1             	mov    %rsi,%rcx
    291e:	48 8b 7c 24 10       	mov    0x10(%rsp),%rdi
    2923:	f2 ae                	repnz scas %es:(%rdi),%al
    2925:	48 89 c8             	mov    %rcx,%rax
    2928:	48 f7 d0             	not    %rax
    292b:	49 8d 4c 00 ff       	lea    -0x1(%r8,%rax,1),%rcx
    2930:	48 8d 44 52 fd       	lea    -0x3(%rdx,%rdx,2),%rax
    2935:	48 8d 84 01 80 00 00 	lea    0x80(%rcx,%rax,1),%rax
    293c:	00 
    293d:	48 3d 00 20 00 00    	cmp    $0x2000,%rax
    2943:	0f 87 f7 02 00 00    	ja     2c40 <submitr+0x450>
    2949:	48 8d b4 24 50 40 00 	lea    0x4050(%rsp),%rsi
    2950:	00 
    2951:	b9 00 04 00 00       	mov    $0x400,%ecx
    2956:	b8 00 00 00 00       	mov    $0x0,%eax
    295b:	48 89 f7             	mov    %rsi,%rdi
    295e:	f3 48 ab             	rep stos %rax,%es:(%rdi)
    2961:	4c 89 f7             	mov    %r14,%rdi
    2964:	e8 77 fd ff ff       	callq  26e0 <urlencode>
    2969:	85 c0                	test   %eax,%eax
    296b:	0f 88 42 03 00 00    	js     2cb3 <submitr+0x4c3>
    2971:	4c 8d bc 24 50 20 00 	lea    0x2050(%rsp),%r15
    2978:	00 
    2979:	48 83 ec 08          	sub    $0x8,%rsp
    297d:	41 54                	push   %r12
    297f:	48 8d 84 24 60 40 00 	lea    0x4060(%rsp),%rax
    2986:	00 
    2987:	50                   	push   %rax
    2988:	41 55                	push   %r13
    298a:	4c 8b 4c 24 30       	mov    0x30(%rsp),%r9
    298f:	4c 8b 44 24 28       	mov    0x28(%rsp),%r8
    2994:	48 8d 0d 6d 1e 00 00 	lea    0x1e6d(%rip),%rcx        # 4808 <secret_tokens+0x48>
    299b:	ba 00 20 00 00       	mov    $0x2000,%edx
    29a0:	be 01 00 00 00       	mov    $0x1,%esi
    29a5:	4c 89 ff             	mov    %r15,%rdi
    29a8:	b8 00 00 00 00       	mov    $0x0,%eax
    29ad:	e8 0e ea ff ff       	callq  13c0 <__sprintf_chk@plt>
    29b2:	48 c7 c1 ff ff ff ff 	mov    $0xffffffffffffffff,%rcx
    29b9:	b8 00 00 00 00       	mov    $0x0,%eax
    29be:	4c 89 ff             	mov    %r15,%rdi
    29c1:	f2 ae                	repnz scas %es:(%rdi),%al
    29c3:	48 f7 d1             	not    %rcx
    29c6:	48 8d 51 ff          	lea    -0x1(%rcx),%rdx
    29ca:	48 83 c4 20          	add    $0x20,%rsp
    29ce:	4c 89 fe             	mov    %r15,%rsi
    29d1:	89 df                	mov    %ebx,%edi
    29d3:	e8 82 fb ff ff       	callq  255a <rio_writen>
    29d8:	48 85 c0             	test   %rax,%rax
    29db:	0f 88 5d 03 00 00    	js     2d3e <submitr+0x54e>
    29e1:	4c 8d 64 24 40       	lea    0x40(%rsp),%r12
    29e6:	89 de                	mov    %ebx,%esi
    29e8:	4c 89 e7             	mov    %r12,%rdi
    29eb:	e8 22 fb ff ff       	callq  2512 <rio_readinitb>
    29f0:	48 8d b4 24 50 20 00 	lea    0x2050(%rsp),%rsi
    29f7:	00 
    29f8:	ba 00 20 00 00       	mov    $0x2000,%edx
    29fd:	4c 89 e7             	mov    %r12,%rdi
    2a00:	e8 3a fc ff ff       	callq  263f <rio_readlineb>
    2a05:	48 85 c0             	test   %rax,%rax
    2a08:	0f 8e 9c 03 00 00    	jle    2daa <submitr+0x5ba>
    2a0e:	48 8d 4c 24 2c       	lea    0x2c(%rsp),%rcx
    2a13:	48 8d 94 24 50 60 00 	lea    0x6050(%rsp),%rdx
    2a1a:	00 
    2a1b:	48 8d bc 24 50 20 00 	lea    0x2050(%rsp),%rdi
    2a22:	00 
    2a23:	4c 8d 84 24 50 80 00 	lea    0x8050(%rsp),%r8
    2a2a:	00 
    2a2b:	48 8d 35 6a 1e 00 00 	lea    0x1e6a(%rip),%rsi        # 489c <secret_tokens+0xdc>
    2a32:	b8 00 00 00 00       	mov    $0x0,%eax
    2a37:	e8 f4 e8 ff ff       	callq  1330 <__isoc99_sscanf@plt>
    2a3c:	48 8d b4 24 50 20 00 	lea    0x2050(%rsp),%rsi
    2a43:	00 
    2a44:	b9 03 00 00 00       	mov    $0x3,%ecx
    2a49:	48 8d 3d 63 1e 00 00 	lea    0x1e63(%rip),%rdi        # 48b3 <secret_tokens+0xf3>
    2a50:	f3 a6                	repz cmpsb %es:(%rdi),%ds:(%rsi)
    2a52:	0f 97 c0             	seta   %al
    2a55:	1c 00                	sbb    $0x0,%al
    2a57:	84 c0                	test   %al,%al
    2a59:	0f 84 cb 03 00 00    	je     2e2a <submitr+0x63a>
    2a5f:	48 8d b4 24 50 20 00 	lea    0x2050(%rsp),%rsi
    2a66:	00 
    2a67:	48 8d 7c 24 40       	lea    0x40(%rsp),%rdi
    2a6c:	ba 00 20 00 00       	mov    $0x2000,%edx
    2a71:	e8 c9 fb ff ff       	callq  263f <rio_readlineb>
    2a76:	48 85 c0             	test   %rax,%rax
    2a79:	7f c1                	jg     2a3c <submitr+0x24c>
    2a7b:	48 b8 45 72 72 6f 72 	movabs $0x43203a726f727245,%rax
    2a82:	3a 20 43 
    2a85:	48 ba 6c 69 65 6e 74 	movabs $0x6e7520746e65696c,%rdx
    2a8c:	20 75 6e 
    2a8f:	48 89 45 00          	mov    %rax,0x0(%rbp)
    2a93:	48 89 55 08          	mov    %rdx,0x8(%rbp)
    2a97:	48 b8 61 62 6c 65 20 	movabs $0x206f7420656c6261,%rax
    2a9e:	74 6f 20 
    2aa1:	48 ba 72 65 61 64 20 	movabs $0x6165682064616572,%rdx
    2aa8:	68 65 61 
    2aab:	48 89 45 10          	mov    %rax,0x10(%rbp)
    2aaf:	48 89 55 18          	mov    %rdx,0x18(%rbp)
    2ab3:	48 b8 64 65 72 73 20 	movabs $0x6f72662073726564,%rax
    2aba:	66 72 6f 
    2abd:	48 ba 6d 20 41 75 74 	movabs $0x616c6f747541206d,%rdx
    2ac4:	6f 6c 61 
    2ac7:	48 89 45 20          	mov    %rax,0x20(%rbp)
    2acb:	48 89 55 28          	mov    %rdx,0x28(%rbp)
    2acf:	48 b8 62 20 73 65 72 	movabs $0x7265767265732062,%rax
    2ad6:	76 65 72 
    2ad9:	48 89 45 30          	mov    %rax,0x30(%rbp)
    2add:	c6 45 38 00          	movb   $0x0,0x38(%rbp)
    2ae1:	89 df                	mov    %ebx,%edi
    2ae3:	e8 b8 e7 ff ff       	callq  12a0 <close@plt>
    2ae8:	b8 ff ff ff ff       	mov    $0xffffffff,%eax
    2aed:	48 8b 9c 24 58 a0 00 	mov    0xa058(%rsp),%rbx
    2af4:	00 
    2af5:	64 48 33 1c 25 28 00 	xor    %fs:0x28,%rbx
    2afc:	00 00 
    2afe:	0f 85 96 04 00 00    	jne    2f9a <submitr+0x7aa>
    2b04:	48 81 c4 68 a0 00 00 	add    $0xa068,%rsp
    2b0b:	5b                   	pop    %rbx
    2b0c:	5d                   	pop    %rbp
    2b0d:	41 5c                	pop    %r12
    2b0f:	41 5d                	pop    %r13
    2b11:	41 5e                	pop    %r14
    2b13:	41 5f                	pop    %r15
    2b15:	c3                   	retq   
    2b16:	48 b8 45 72 72 6f 72 	movabs $0x43203a726f727245,%rax
    2b1d:	3a 20 43 
    2b20:	48 ba 6c 69 65 6e 74 	movabs $0x6e7520746e65696c,%rdx
    2b27:	20 75 6e 
    2b2a:	48 89 45 00          	mov    %rax,0x0(%rbp)
    2b2e:	48 89 55 08          	mov    %rdx,0x8(%rbp)
    2b32:	48 b8 61 62 6c 65 20 	movabs $0x206f7420656c6261,%rax
    2b39:	74 6f 20 
    2b3c:	48 ba 63 72 65 61 74 	movabs $0x7320657461657263,%rdx
    2b43:	65 20 73 
    2b46:	48 89 45 10          	mov    %rax,0x10(%rbp)
    2b4a:	48 89 55 18          	mov    %rdx,0x18(%rbp)
    2b4e:	c7 45 20 6f 63 6b 65 	movl   $0x656b636f,0x20(%rbp)
    2b55:	66 c7 45 24 74 00    	movw   $0x74,0x24(%rbp)
    2b5b:	b8 ff ff ff ff       	mov    $0xffffffff,%eax
    2b60:	eb 8b                	jmp    2aed <submitr+0x2fd>
    2b62:	48 b8 45 72 72 6f 72 	movabs $0x44203a726f727245,%rax
    2b69:	3a 20 44 
    2b6c:	48 ba 4e 53 20 69 73 	movabs $0x6e7520736920534e,%rdx
    2b73:	20 75 6e 
    2b76:	48 89 45 00          	mov    %rax,0x0(%rbp)
    2b7a:	48 89 55 08          	mov    %rdx,0x8(%rbp)
    2b7e:	48 b8 61 62 6c 65 20 	movabs $0x206f7420656c6261,%rax
    2b85:	74 6f 20 
    2b88:	48 ba 72 65 73 6f 6c 	movabs $0x2065766c6f736572,%rdx
    2b8f:	76 65 20 
    2b92:	48 89 45 10          	mov    %rax,0x10(%rbp)
    2b96:	48 89 55 18          	mov    %rdx,0x18(%rbp)
    2b9a:	48 b8 41 75 74 6f 6c 	movabs $0x2062616c6f747541,%rax
    2ba1:	61 62 20 
    2ba4:	48 ba 73 65 72 76 65 	movabs $0x6120726576726573,%rdx
    2bab:	72 20 61 
    2bae:	48 89 45 20          	mov    %rax,0x20(%rbp)
    2bb2:	48 89 55 28          	mov    %rdx,0x28(%rbp)
    2bb6:	c7 45 30 64 64 72 65 	movl   $0x65726464,0x30(%rbp)
    2bbd:	66 c7 45 34 73 73    	movw   $0x7373,0x34(%rbp)
    2bc3:	c6 45 36 00          	movb   $0x0,0x36(%rbp)
    2bc7:	89 df                	mov    %ebx,%edi
    2bc9:	e8 d2 e6 ff ff       	callq  12a0 <close@plt>
    2bce:	b8 ff ff ff ff       	mov    $0xffffffff,%eax
    2bd3:	e9 15 ff ff ff       	jmpq   2aed <submitr+0x2fd>
    2bd8:	48 b8 45 72 72 6f 72 	movabs $0x55203a726f727245,%rax
    2bdf:	3a 20 55 
    2be2:	48 ba 6e 61 62 6c 65 	movabs $0x6f7420656c62616e,%rdx
    2be9:	20 74 6f 
    2bec:	48 89 45 00          	mov    %rax,0x0(%rbp)
    2bf0:	48 89 55 08          	mov    %rdx,0x8(%rbp)
    2bf4:	48 b8 20 63 6f 6e 6e 	movabs $0x7463656e6e6f6320,%rax
    2bfb:	65 63 74 
    2bfe:	48 ba 20 74 6f 20 74 	movabs $0x20656874206f7420,%rdx
    2c05:	68 65 20 
    2c08:	48 89 45 10          	mov    %rax,0x10(%rbp)
    2c0c:	48 89 55 18          	mov    %rdx,0x18(%rbp)
    2c10:	48 b8 41 75 74 6f 6c 	movabs $0x2062616c6f747541,%rax
    2c17:	61 62 20 
    2c1a:	48 89 45 20          	mov    %rax,0x20(%rbp)
    2c1e:	c7 45 28 73 65 72 76 	movl   $0x76726573,0x28(%rbp)
    2c25:	66 c7 45 2c 65 72    	movw   $0x7265,0x2c(%rbp)
    2c2b:	c6 45 2e 00          	movb   $0x0,0x2e(%rbp)
    2c2f:	89 df                	mov    %ebx,%edi
    2c31:	e8 6a e6 ff ff       	callq  12a0 <close@plt>
    2c36:	b8 ff ff ff ff       	mov    $0xffffffff,%eax
    2c3b:	e9 ad fe ff ff       	jmpq   2aed <submitr+0x2fd>
    2c40:	48 b8 45 72 72 6f 72 	movabs $0x52203a726f727245,%rax
    2c47:	3a 20 52 
    2c4a:	48 ba 65 73 75 6c 74 	movabs $0x747320746c757365,%rdx
    2c51:	20 73 74 
    2c54:	48 89 45 00          	mov    %rax,0x0(%rbp)
    2c58:	48 89 55 08          	mov    %rdx,0x8(%rbp)
    2c5c:	48 b8 72 69 6e 67 20 	movabs $0x6f6f7420676e6972,%rax
    2c63:	74 6f 6f 
    2c66:	48 ba 20 6c 61 72 67 	movabs $0x202e656772616c20,%rdx
    2c6d:	65 2e 20 
    2c70:	48 89 45 10          	mov    %rax,0x10(%rbp)
    2c74:	48 89 55 18          	mov    %rdx,0x18(%rbp)
    2c78:	48 b8 49 6e 63 72 65 	movabs $0x6573616572636e49,%rax
    2c7f:	61 73 65 
    2c82:	48 ba 20 53 55 42 4d 	movabs $0x5254494d42555320,%rdx
    2c89:	49 54 52 
    2c8c:	48 89 45 20          	mov    %rax,0x20(%rbp)
    2c90:	48 89 55 28          	mov    %rdx,0x28(%rbp)
    2c94:	48 b8 5f 4d 41 58 42 	movabs $0x46554258414d5f,%rax
    2c9b:	55 46 00 
    2c9e:	48 89 45 30          	mov    %rax,0x30(%rbp)
    2ca2:	89 df                	mov    %ebx,%edi
    2ca4:	e8 f7 e5 ff ff       	callq  12a0 <close@plt>
    2ca9:	b8 ff ff ff ff       	mov    $0xffffffff,%eax
    2cae:	e9 3a fe ff ff       	jmpq   2aed <submitr+0x2fd>
    2cb3:	48 b8 45 72 72 6f 72 	movabs $0x52203a726f727245,%rax
    2cba:	3a 20 52 
    2cbd:	48 ba 65 73 75 6c 74 	movabs $0x747320746c757365,%rdx
    2cc4:	20 73 74 
    2cc7:	48 89 45 00          	mov    %rax,0x0(%rbp)
    2ccb:	48 89 55 08          	mov    %rdx,0x8(%rbp)
    2ccf:	48 b8 72 69 6e 67 20 	movabs $0x6e6f6320676e6972,%rax
    2cd6:	63 6f 6e 
    2cd9:	48 ba 74 61 69 6e 73 	movabs $0x6e6120736e696174,%rdx
    2ce0:	20 61 6e 
    2ce3:	48 89 45 10          	mov    %rax,0x10(%rbp)
    2ce7:	48 89 55 18          	mov    %rdx,0x18(%rbp)
    2ceb:	48 b8 20 69 6c 6c 65 	movabs $0x6c6167656c6c6920,%rax
    2cf2:	67 61 6c 
    2cf5:	48 ba 20 6f 72 20 75 	movabs $0x72706e7520726f20,%rdx
    2cfc:	6e 70 72 
    2cff:	48 89 45 20          	mov    %rax,0x20(%rbp)
    2d03:	48 89 55 28          	mov    %rdx,0x28(%rbp)
    2d07:	48 b8 69 6e 74 61 62 	movabs $0x20656c6261746e69,%rax
    2d0e:	6c 65 20 
    2d11:	48 ba 63 68 61 72 61 	movabs $0x6574636172616863,%rdx
    2d18:	63 74 65 
    2d1b:	48 89 45 30          	mov    %rax,0x30(%rbp)
    2d1f:	48 89 55 38          	mov    %rdx,0x38(%rbp)
    2d23:	66 c7 45 40 72 2e    	movw   $0x2e72,0x40(%rbp)
    2d29:	c6 45 42 00          	movb   $0x0,0x42(%rbp)
    2d2d:	89 df                	mov    %ebx,%edi
    2d2f:	e8 6c e5 ff ff       	callq  12a0 <close@plt>
    2d34:	b8 ff ff ff ff       	mov    $0xffffffff,%eax
    2d39:	e9 af fd ff ff       	jmpq   2aed <submitr+0x2fd>
    2d3e:	48 b8 45 72 72 6f 72 	movabs $0x43203a726f727245,%rax
    2d45:	3a 20 43 
    2d48:	48 ba 6c 69 65 6e 74 	movabs $0x6e7520746e65696c,%rdx
    2d4f:	20 75 6e 
    2d52:	48 89 45 00          	mov    %rax,0x0(%rbp)
    2d56:	48 89 55 08          	mov    %rdx,0x8(%rbp)
    2d5a:	48 b8 61 62 6c 65 20 	movabs $0x206f7420656c6261,%rax
    2d61:	74 6f 20 
    2d64:	48 ba 77 72 69 74 65 	movabs $0x6f74206574697277,%rdx
    2d6b:	20 74 6f 
    2d6e:	48 89 45 10          	mov    %rax,0x10(%rbp)
    2d72:	48 89 55 18          	mov    %rdx,0x18(%rbp)
    2d76:	48 b8 20 74 68 65 20 	movabs $0x7475412065687420,%rax
    2d7d:	41 75 74 
    2d80:	48 ba 6f 6c 61 62 20 	movabs $0x7265732062616c6f,%rdx
    2d87:	73 65 72 
    2d8a:	48 89 45 20          	mov    %rax,0x20(%rbp)
    2d8e:	48 89 55 28          	mov    %rdx,0x28(%rbp)
    2d92:	c7 45 30 76 65 72 00 	movl   $0x726576,0x30(%rbp)
    2d99:	89 df                	mov    %ebx,%edi
    2d9b:	e8 00 e5 ff ff       	callq  12a0 <close@plt>
    2da0:	b8 ff ff ff ff       	mov    $0xffffffff,%eax
    2da5:	e9 43 fd ff ff       	jmpq   2aed <submitr+0x2fd>
    2daa:	48 b8 45 72 72 6f 72 	movabs $0x43203a726f727245,%rax
    2db1:	3a 20 43 
    2db4:	48 ba 6c 69 65 6e 74 	movabs $0x6e7520746e65696c,%rdx
    2dbb:	20 75 6e 
    2dbe:	48 89 45 00          	mov    %rax,0x0(%rbp)
    2dc2:	48 89 55 08          	mov    %rdx,0x8(%rbp)
    2dc6:	48 b8 61 62 6c 65 20 	movabs $0x206f7420656c6261,%rax
    2dcd:	74 6f 20 
    2dd0:	48 ba 72 65 61 64 20 	movabs $0x7269662064616572,%rdx
    2dd7:	66 69 72 
    2dda:	48 89 45 10          	mov    %rax,0x10(%rbp)
    2dde:	48 89 55 18          	mov    %rdx,0x18(%rbp)
    2de2:	48 b8 73 74 20 68 65 	movabs $0x6564616568207473,%rax
    2de9:	61 64 65 
    2dec:	48 ba 72 20 66 72 6f 	movabs $0x41206d6f72662072,%rdx
    2df3:	6d 20 41 
    2df6:	48 89 45 20          	mov    %rax,0x20(%rbp)
    2dfa:	48 89 55 28          	mov    %rdx,0x28(%rbp)
    2dfe:	48 b8 75 74 6f 6c 61 	movabs $0x732062616c6f7475,%rax
    2e05:	62 20 73 
    2e08:	48 89 45 30          	mov    %rax,0x30(%rbp)
    2e0c:	c7 45 38 65 72 76 65 	movl   $0x65767265,0x38(%rbp)
    2e13:	66 c7 45 3c 72 00    	movw   $0x72,0x3c(%rbp)
    2e19:	89 df                	mov    %ebx,%edi
    2e1b:	e8 80 e4 ff ff       	callq  12a0 <close@plt>
    2e20:	b8 ff ff ff ff       	mov    $0xffffffff,%eax
    2e25:	e9 c3 fc ff ff       	jmpq   2aed <submitr+0x2fd>
    2e2a:	48 8d b4 24 50 20 00 	lea    0x2050(%rsp),%rsi
    2e31:	00 
    2e32:	48 8d 7c 24 40       	lea    0x40(%rsp),%rdi
    2e37:	ba 00 20 00 00       	mov    $0x2000,%edx
    2e3c:	e8 fe f7 ff ff       	callq  263f <rio_readlineb>
    2e41:	48 85 c0             	test   %rax,%rax
    2e44:	0f 8e 96 00 00 00    	jle    2ee0 <submitr+0x6f0>
    2e4a:	44 8b 44 24 2c       	mov    0x2c(%rsp),%r8d
    2e4f:	41 81 f8 c8 00 00 00 	cmp    $0xc8,%r8d
    2e56:	0f 85 05 01 00 00    	jne    2f61 <submitr+0x771>
    2e5c:	48 8d b4 24 50 20 00 	lea    0x2050(%rsp),%rsi
    2e63:	00 
    2e64:	48 89 ef             	mov    %rbp,%rdi
    2e67:	e8 e4 e3 ff ff       	callq  1250 <strcpy@plt>
    2e6c:	89 df                	mov    %ebx,%edi
    2e6e:	e8 2d e4 ff ff       	callq  12a0 <close@plt>
    2e73:	b9 04 00 00 00       	mov    $0x4,%ecx
    2e78:	48 8d 3d 2e 1a 00 00 	lea    0x1a2e(%rip),%rdi        # 48ad <secret_tokens+0xed>
    2e7f:	48 89 ee             	mov    %rbp,%rsi
    2e82:	f3 a6                	repz cmpsb %es:(%rdi),%ds:(%rsi)
    2e84:	0f 97 c0             	seta   %al
    2e87:	1c 00                	sbb    $0x0,%al
    2e89:	0f be c0             	movsbl %al,%eax
    2e8c:	85 c0                	test   %eax,%eax
    2e8e:	0f 84 59 fc ff ff    	je     2aed <submitr+0x2fd>
    2e94:	b9 05 00 00 00       	mov    $0x5,%ecx
    2e99:	48 8d 3d 11 1a 00 00 	lea    0x1a11(%rip),%rdi        # 48b1 <secret_tokens+0xf1>
    2ea0:	48 89 ee             	mov    %rbp,%rsi
    2ea3:	f3 a6                	repz cmpsb %es:(%rdi),%ds:(%rsi)
    2ea5:	0f 97 c0             	seta   %al
    2ea8:	1c 00                	sbb    $0x0,%al
    2eaa:	0f be c0             	movsbl %al,%eax
    2ead:	85 c0                	test   %eax,%eax
    2eaf:	0f 84 38 fc ff ff    	je     2aed <submitr+0x2fd>
    2eb5:	b9 03 00 00 00       	mov    $0x3,%ecx
    2eba:	48 8d 3d f5 19 00 00 	lea    0x19f5(%rip),%rdi        # 48b6 <secret_tokens+0xf6>
    2ec1:	48 89 ee             	mov    %rbp,%rsi
    2ec4:	f3 a6                	repz cmpsb %es:(%rdi),%ds:(%rsi)
    2ec6:	0f 97 c0             	seta   %al
    2ec9:	1c 00                	sbb    $0x0,%al
    2ecb:	0f be c0             	movsbl %al,%eax
    2ece:	85 c0                	test   %eax,%eax
    2ed0:	0f 84 17 fc ff ff    	je     2aed <submitr+0x2fd>
    2ed6:	b8 ff ff ff ff       	mov    $0xffffffff,%eax
    2edb:	e9 0d fc ff ff       	jmpq   2aed <submitr+0x2fd>
    2ee0:	48 b8 45 72 72 6f 72 	movabs $0x43203a726f727245,%rax
    2ee7:	3a 20 43 
    2eea:	48 ba 6c 69 65 6e 74 	movabs $0x6e7520746e65696c,%rdx
    2ef1:	20 75 6e 
    2ef4:	48 89 45 00          	mov    %rax,0x0(%rbp)
    2ef8:	48 89 55 08          	mov    %rdx,0x8(%rbp)
    2efc:	48 b8 61 62 6c 65 20 	movabs $0x206f7420656c6261,%rax
    2f03:	74 6f 20 
    2f06:	48 ba 72 65 61 64 20 	movabs $0x6174732064616572,%rdx
    2f0d:	73 74 61 
    2f10:	48 89 45 10          	mov    %rax,0x10(%rbp)
    2f14:	48 89 55 18          	mov    %rdx,0x18(%rbp)
    2f18:	48 b8 74 75 73 20 6d 	movabs $0x7373656d20737574,%rax
    2f1f:	65 73 73 
    2f22:	48 ba 61 67 65 20 66 	movabs $0x6d6f726620656761,%rdx
    2f29:	72 6f 6d 
    2f2c:	48 89 45 20          	mov    %rax,0x20(%rbp)
    2f30:	48 89 55 28          	mov    %rdx,0x28(%rbp)
    2f34:	48 b8 20 41 75 74 6f 	movabs $0x62616c6f74754120,%rax
    2f3b:	6c 61 62 
    2f3e:	48 ba 20 73 65 72 76 	movabs $0x72657672657320,%rdx
    2f45:	65 72 00 
    2f48:	48 89 45 30          	mov    %rax,0x30(%rbp)
    2f4c:	48 89 55 38          	mov    %rdx,0x38(%rbp)
    2f50:	89 df                	mov    %ebx,%edi
    2f52:	e8 49 e3 ff ff       	callq  12a0 <close@plt>
    2f57:	b8 ff ff ff ff       	mov    $0xffffffff,%eax
    2f5c:	e9 8c fb ff ff       	jmpq   2aed <submitr+0x2fd>
    2f61:	4c 8d 8c 24 50 80 00 	lea    0x8050(%rsp),%r9
    2f68:	00 
    2f69:	48 8d 0d f8 18 00 00 	lea    0x18f8(%rip),%rcx        # 4868 <secret_tokens+0xa8>
    2f70:	48 c7 c2 ff ff ff ff 	mov    $0xffffffffffffffff,%rdx
    2f77:	be 01 00 00 00       	mov    $0x1,%esi
    2f7c:	48 89 ef             	mov    %rbp,%rdi
    2f7f:	b8 00 00 00 00       	mov    $0x0,%eax
    2f84:	e8 37 e4 ff ff       	callq  13c0 <__sprintf_chk@plt>
    2f89:	89 df                	mov    %ebx,%edi
    2f8b:	e8 10 e3 ff ff       	callq  12a0 <close@plt>
    2f90:	b8 ff ff ff ff       	mov    $0xffffffff,%eax
    2f95:	e9 53 fb ff ff       	jmpq   2aed <submitr+0x2fd>
    2f9a:	e8 e1 e2 ff ff       	callq  1280 <__stack_chk_fail@plt>

0000000000002f9f <init_timeout>:
    2f9f:	f3 0f 1e fa          	endbr64 
    2fa3:	85 ff                	test   %edi,%edi
    2fa5:	74 26                	je     2fcd <init_timeout+0x2e>
    2fa7:	53                   	push   %rbx
    2fa8:	89 fb                	mov    %edi,%ebx
    2faa:	78 1a                	js     2fc6 <init_timeout+0x27>
    2fac:	48 8d 35 71 f5 ff ff 	lea    -0xa8f(%rip),%rsi        # 2524 <sigalrm_handler>
    2fb3:	bf 0e 00 00 00       	mov    $0xe,%edi
    2fb8:	e8 13 e3 ff ff       	callq  12d0 <signal@plt>
    2fbd:	89 df                	mov    %ebx,%edi
    2fbf:	e8 cc e2 ff ff       	callq  1290 <alarm@plt>
    2fc4:	5b                   	pop    %rbx
    2fc5:	c3                   	retq   
    2fc6:	bb 00 00 00 00       	mov    $0x0,%ebx
    2fcb:	eb df                	jmp    2fac <init_timeout+0xd>
    2fcd:	c3                   	retq   

0000000000002fce <init_driver>:
    2fce:	f3 0f 1e fa          	endbr64 
    2fd2:	41 54                	push   %r12
    2fd4:	55                   	push   %rbp
    2fd5:	53                   	push   %rbx
    2fd6:	48 83 ec 20          	sub    $0x20,%rsp
    2fda:	48 89 fd             	mov    %rdi,%rbp
    2fdd:	64 48 8b 04 25 28 00 	mov    %fs:0x28,%rax
    2fe4:	00 00 
    2fe6:	48 89 44 24 18       	mov    %rax,0x18(%rsp)
    2feb:	31 c0                	xor    %eax,%eax
    2fed:	be 01 00 00 00       	mov    $0x1,%esi
    2ff2:	bf 0d 00 00 00       	mov    $0xd,%edi
    2ff7:	e8 d4 e2 ff ff       	callq  12d0 <signal@plt>
    2ffc:	be 01 00 00 00       	mov    $0x1,%esi
    3001:	bf 1d 00 00 00       	mov    $0x1d,%edi
    3006:	e8 c5 e2 ff ff       	callq  12d0 <signal@plt>
    300b:	be 01 00 00 00       	mov    $0x1,%esi
    3010:	bf 1d 00 00 00       	mov    $0x1d,%edi
    3015:	e8 b6 e2 ff ff       	callq  12d0 <signal@plt>
    301a:	ba 00 00 00 00       	mov    $0x0,%edx
    301f:	be 01 00 00 00       	mov    $0x1,%esi
    3024:	bf 02 00 00 00       	mov    $0x2,%edi
    3029:	e8 a2 e3 ff ff       	callq  13d0 <socket@plt>
    302e:	85 c0                	test   %eax,%eax
    3030:	0f 88 9c 00 00 00    	js     30d2 <init_driver+0x104>
    3036:	89 c3                	mov    %eax,%ebx
    3038:	48 8d 3d 7a 18 00 00 	lea    0x187a(%rip),%rdi        # 48b9 <secret_tokens+0xf9>
    303f:	e8 9c e2 ff ff       	callq  12e0 <gethostbyname@plt>
    3044:	48 85 c0             	test   %rax,%rax
    3047:	0f 84 d1 00 00 00    	je     311e <init_driver+0x150>
    304d:	49 89 e4             	mov    %rsp,%r12
    3050:	48 c7 04 24 00 00 00 	movq   $0x0,(%rsp)
    3057:	00 
    3058:	48 c7 44 24 08 00 00 	movq   $0x0,0x8(%rsp)
    305f:	00 00 
    3061:	66 c7 04 24 02 00    	movw   $0x2,(%rsp)
    3067:	48 63 50 14          	movslq 0x14(%rax),%rdx
    306b:	48 8b 40 18          	mov    0x18(%rax),%rax
    306f:	48 8b 30             	mov    (%rax),%rsi
    3072:	48 8d 7c 24 04       	lea    0x4(%rsp),%rdi
    3077:	b9 0c 00 00 00       	mov    $0xc,%ecx
    307c:	e8 6f e2 ff ff       	callq  12f0 <__memmove_chk@plt>
    3081:	66 c7 44 24 02 30 39 	movw   $0x3930,0x2(%rsp)
    3088:	ba 10 00 00 00       	mov    $0x10,%edx
    308d:	4c 89 e6             	mov    %r12,%rsi
    3090:	89 df                	mov    %ebx,%edi
    3092:	e8 e9 e2 ff ff       	callq  1380 <connect@plt>
    3097:	85 c0                	test   %eax,%eax
    3099:	0f 88 e7 00 00 00    	js     3186 <init_driver+0x1b8>
    309f:	89 df                	mov    %ebx,%edi
    30a1:	e8 fa e1 ff ff       	callq  12a0 <close@plt>
    30a6:	66 c7 45 00 4f 4b    	movw   $0x4b4f,0x0(%rbp)
    30ac:	c6 45 02 00          	movb   $0x0,0x2(%rbp)
    30b0:	b8 00 00 00 00       	mov    $0x0,%eax
    30b5:	48 8b 4c 24 18       	mov    0x18(%rsp),%rcx
    30ba:	64 48 33 0c 25 28 00 	xor    %fs:0x28,%rcx
    30c1:	00 00 
    30c3:	0f 85 10 01 00 00    	jne    31d9 <init_driver+0x20b>
    30c9:	48 83 c4 20          	add    $0x20,%rsp
    30cd:	5b                   	pop    %rbx
    30ce:	5d                   	pop    %rbp
    30cf:	41 5c                	pop    %r12
    30d1:	c3                   	retq   
    30d2:	48 b8 45 72 72 6f 72 	movabs $0x43203a726f727245,%rax
    30d9:	3a 20 43 
    30dc:	48 ba 6c 69 65 6e 74 	movabs $0x6e7520746e65696c,%rdx
    30e3:	20 75 6e 
    30e6:	48 89 45 00          	mov    %rax,0x0(%rbp)
    30ea:	48 89 55 08          	mov    %rdx,0x8(%rbp)
    30ee:	48 b8 61 62 6c 65 20 	movabs $0x206f7420656c6261,%rax
    30f5:	74 6f 20 
    30f8:	48 ba 63 72 65 61 74 	movabs $0x7320657461657263,%rdx
    30ff:	65 20 73 
    3102:	48 89 45 10          	mov    %rax,0x10(%rbp)
    3106:	48 89 55 18          	mov    %rdx,0x18(%rbp)
    310a:	c7 45 20 6f 63 6b 65 	movl   $0x656b636f,0x20(%rbp)
    3111:	66 c7 45 24 74 00    	movw   $0x74,0x24(%rbp)
    3117:	b8 ff ff ff ff       	mov    $0xffffffff,%eax
    311c:	eb 97                	jmp    30b5 <init_driver+0xe7>
    311e:	48 b8 45 72 72 6f 72 	movabs $0x44203a726f727245,%rax
    3125:	3a 20 44 
    3128:	48 ba 4e 53 20 69 73 	movabs $0x6e7520736920534e,%rdx
    312f:	20 75 6e 
    3132:	48 89 45 00          	mov    %rax,0x0(%rbp)
    3136:	48 89 55 08          	mov    %rdx,0x8(%rbp)
    313a:	48 b8 61 62 6c 65 20 	movabs $0x206f7420656c6261,%rax
    3141:	74 6f 20 
    3144:	48 ba 72 65 73 6f 6c 	movabs $0x2065766c6f736572,%rdx
    314b:	76 65 20 
    314e:	48 89 45 10          	mov    %rax,0x10(%rbp)
    3152:	48 89 55 18          	mov    %rdx,0x18(%rbp)
    3156:	48 b8 73 65 72 76 65 	movabs $0x6120726576726573,%rax
    315d:	72 20 61 
    3160:	48 89 45 20          	mov    %rax,0x20(%rbp)
    3164:	c7 45 28 64 64 72 65 	movl   $0x65726464,0x28(%rbp)
    316b:	66 c7 45 2c 73 73    	movw   $0x7373,0x2c(%rbp)
    3171:	c6 45 2e 00          	movb   $0x0,0x2e(%rbp)
    3175:	89 df                	mov    %ebx,%edi
    3177:	e8 24 e1 ff ff       	callq  12a0 <close@plt>
    317c:	b8 ff ff ff ff       	mov    $0xffffffff,%eax
    3181:	e9 2f ff ff ff       	jmpq   30b5 <init_driver+0xe7>
    3186:	48 b8 45 72 72 6f 72 	movabs $0x55203a726f727245,%rax
    318d:	3a 20 55 
    3190:	48 ba 6e 61 62 6c 65 	movabs $0x6f7420656c62616e,%rdx
    3197:	20 74 6f 
    319a:	48 89 45 00          	mov    %rax,0x0(%rbp)
    319e:	48 89 55 08          	mov    %rdx,0x8(%rbp)
    31a2:	48 b8 20 63 6f 6e 6e 	movabs $0x7463656e6e6f6320,%rax
    31a9:	65 63 74 
    31ac:	48 ba 20 74 6f 20 73 	movabs $0x76726573206f7420,%rdx
    31b3:	65 72 76 
    31b6:	48 89 45 10          	mov    %rax,0x10(%rbp)
    31ba:	48 89 55 18          	mov    %rdx,0x18(%rbp)
    31be:	66 c7 45 20 65 72    	movw   $0x7265,0x20(%rbp)
    31c4:	c6 45 22 00          	movb   $0x0,0x22(%rbp)
    31c8:	89 df                	mov    %ebx,%edi
    31ca:	e8 d1 e0 ff ff       	callq  12a0 <close@plt>
    31cf:	b8 ff ff ff ff       	mov    $0xffffffff,%eax
    31d4:	e9 dc fe ff ff       	jmpq   30b5 <init_driver+0xe7>
    31d9:	e8 a2 e0 ff ff       	callq  1280 <__stack_chk_fail@plt>

00000000000031de <driver_post>:
    31de:	f3 0f 1e fa          	endbr64 
    31e2:	53                   	push   %rbx
    31e3:	4c 89 cb             	mov    %r9,%rbx
    31e6:	45 85 c0             	test   %r8d,%r8d
    31e9:	75 18                	jne    3203 <driver_post+0x25>
    31eb:	48 85 ff             	test   %rdi,%rdi
    31ee:	74 05                	je     31f5 <driver_post+0x17>
    31f0:	80 3f 00             	cmpb   $0x0,(%rdi)
    31f3:	75 37                	jne    322c <driver_post+0x4e>
    31f5:	66 c7 03 4f 4b       	movw   $0x4b4f,(%rbx)
    31fa:	c6 43 02 00          	movb   $0x0,0x2(%rbx)
    31fe:	44 89 c0             	mov    %r8d,%eax
    3201:	5b                   	pop    %rbx
    3202:	c3                   	retq   
    3203:	48 89 ca             	mov    %rcx,%rdx
    3206:	48 8d 35 bc 16 00 00 	lea    0x16bc(%rip),%rsi        # 48c9 <secret_tokens+0x109>
    320d:	bf 01 00 00 00       	mov    $0x1,%edi
    3212:	b8 00 00 00 00       	mov    $0x0,%eax
    3217:	e8 24 e1 ff ff       	callq  1340 <__printf_chk@plt>
    321c:	66 c7 03 4f 4b       	movw   $0x4b4f,(%rbx)
    3221:	c6 43 02 00          	movb   $0x0,0x2(%rbx)
    3225:	b8 00 00 00 00       	mov    $0x0,%eax
    322a:	eb d5                	jmp    3201 <driver_post+0x23>
    322c:	48 83 ec 08          	sub    $0x8,%rsp
    3230:	41 51                	push   %r9
    3232:	49 89 c9             	mov    %rcx,%r9
    3235:	49 89 d0             	mov    %rdx,%r8
    3238:	48 89 f9             	mov    %rdi,%rcx
    323b:	48 89 f2             	mov    %rsi,%rdx
    323e:	be 39 30 00 00       	mov    $0x3039,%esi
    3243:	48 8d 3d 6f 16 00 00 	lea    0x166f(%rip),%rdi        # 48b9 <secret_tokens+0xf9>
    324a:	e8 a1 f5 ff ff       	callq  27f0 <submitr>
    324f:	48 83 c4 10          	add    $0x10,%rsp
    3253:	eb ac                	jmp    3201 <driver_post+0x23>
    3255:	66 2e 0f 1f 84 00 00 	nopw   %cs:0x0(%rax,%rax,1)
    325c:	00 00 00 
    325f:	90                   	nop

0000000000003260 <__libc_csu_init>:
    3260:	f3 0f 1e fa          	endbr64 
    3264:	41 57                	push   %r15
    3266:	4c 8d 3d 5b 3a 00 00 	lea    0x3a5b(%rip),%r15        # 6cc8 <__frame_dummy_init_array_entry>
    326d:	41 56                	push   %r14
    326f:	49 89 d6             	mov    %rdx,%r14
    3272:	41 55                	push   %r13
    3274:	49 89 f5             	mov    %rsi,%r13
    3277:	41 54                	push   %r12
    3279:	41 89 fc             	mov    %edi,%r12d
    327c:	55                   	push   %rbp
    327d:	48 8d 2d 4c 3a 00 00 	lea    0x3a4c(%rip),%rbp        # 6cd0 <__init_array_end>
    3284:	53                   	push   %rbx
    3285:	4c 29 fd             	sub    %r15,%rbp
    3288:	48 83 ec 08          	sub    $0x8,%rsp
    328c:	e8 6f dd ff ff       	callq  1000 <_init>
    3291:	48 c1 fd 03          	sar    $0x3,%rbp
    3295:	74 1f                	je     32b6 <__libc_csu_init+0x56>
    3297:	31 db                	xor    %ebx,%ebx
    3299:	0f 1f 80 00 00 00 00 	nopl   0x0(%rax)
    32a0:	4c 89 f2             	mov    %r14,%rdx
    32a3:	4c 89 ee             	mov    %r13,%rsi
    32a6:	44 89 e7             	mov    %r12d,%edi
    32a9:	41 ff 14 df          	callq  *(%r15,%rbx,8)
    32ad:	48 83 c3 01          	add    $0x1,%rbx
    32b1:	48 39 dd             	cmp    %rbx,%rbp
    32b4:	75 ea                	jne    32a0 <__libc_csu_init+0x40>
    32b6:	48 83 c4 08          	add    $0x8,%rsp
    32ba:	5b                   	pop    %rbx
    32bb:	5d                   	pop    %rbp
    32bc:	41 5c                	pop    %r12
    32be:	41 5d                	pop    %r13
    32c0:	41 5e                	pop    %r14
    32c2:	41 5f                	pop    %r15
    32c4:	c3                   	retq   
    32c5:	66 66 2e 0f 1f 84 00 	data16 nopw %cs:0x0(%rax,%rax,1)
    32cc:	00 00 00 00 

00000000000032d0 <__libc_csu_fini>:
    32d0:	f3 0f 1e fa          	endbr64 
    32d4:	c3                   	retq   

Disassembly of section .fini:

00000000000032d8 <_fini>:
    32d8:	f3 0f 1e fa          	endbr64 
    32dc:	48 83 ec 08          	sub    $0x8,%rsp
    32e0:	48 83 c4 08          	add    $0x8,%rsp
    32e4:	c3                   	retq   
